c__builtin__
set
p1
((lp2
Vhttps://docs.python.org/2.2/lib/simple-xmlrpc-servers.html
p3
aVhttps://docs.python.org/2.2/api/builtinCodecs.html
p4
aVhttps://docs.python.org/2.2/lib/module-pprint.html
p5
aVhttps://docs.python.org/2/tutorial/classes.html
p6
aVhttps://docs.python.org/2/library/tempfile.html
p7
aVhttps://docs.python.org/2/library/markup.html
p8
aVhttps://docs.python.org/2.2/lib/node525.html
p9
aVhttps://docs.python.org/2/library/shutil.html
p10
aVhttps://docs.python.org/2.2/ref/node41.html
p11
aVhttps://docs.python.org/2.2/lib/module-distutils.html
p12
aVhttps://docs.python.org/2.2/lib/module-aifc.html
p13
aVhttps://docs.python.org/2.2/lib/node624.html
p14
aVhttps://docs.python.org/2/genindex-P.html
p15
aVhttps://docs.python.org/2.2/api/node38.html
p16
aVhttps://docs.python.org/2.2/api/floatObjects.html
p17
aVhttps://docs.python.org/2/library/distutils.html
p18
aVhttps://docs.python.org/2.2/api/stringObjects.html
p19
aVhttps://docs.python.org/2.2/lib/module-gl-constants.html
p20
aVhttps://docs.python.org/2/license.html
p21
aVhttps://docs.python.org/2/c-api/intro.html
p22
aVhttps://docs.python.org/2.2/dist/simple-example.html
p23
aVhttps://docs.python.org/2.2/ref/atom-identifiers.html
p24
aVhttps://docs.python.org/2/howto/functional.html
p25
aVhttps://docs.python.org/2.2/lib/node549.html
p26
aVhttps://docs.python.org/2/library/ensurepip.html
p27
aVhttps://docs.python.org/2/library/contextlib.html
p28
aVhttps://docs.python.org/2.2/lib/module-email.Generator.html
p29
aVhttps://docs.python.org/2.2/lib/builtin.html
p30
aVhttps://docs.python.org/2/library/internet.html
p31
aVhttps://docs.python.org/2.2/mac/module-mkcwproject.html
p32
aVhttps://docs.python.org/2/index.html
p33
aVhttps://docs.python.org/2.2/lib/socket-example.html
p34
aVhttps://docs.python.org/2.2/lib/about.html
p35
aVhttps://docs.python.org/2/library/sets.html
p36
aVhttps://docs.python.org/2.2/ref/logical.html
p37
aVhttps://docs.python.org/2.2/tut/node5.html
p38
aVhttps://docs.python.org/2.2/ref/del.html
p39
aVhttps://docs.python.org/2.2/lib/node520.html
p40
aVhttps://docs.python.org/2/library/textwrap.html
p41
aVhttps://docs.python.org/2/library/threading.html
p42
aVhttps://docs.python.org/2/c-api/gen.html
p43
aVhttps://docs.python.org/2/distutils/apiref.html
p44
aVhttps://docs.python.org/2.2/lib/httpconnection-objects.html
p45
aVhttps://docs.python.org/2.2/lib/ftp-objects.html
p46
aVhttps://docs.python.org/2/library/imputil.html
p47
aVhttps://docs.python.org/2.2/lib/ftp-handler-objects.html
p48
aVhttps://docs.python.org/2/library/xdrlib.html
p49
aVhttps://docs.python.org/2.2/doc/special-constructs.html
p50
aVhttps://docs.python.org/2.2/lib/misc.html
p51
aVhttps://docs.python.org/2.2/api/exceptions.html
p52
aVhttps://docs.python.org/2.2/lib/pyclbr-class-objects.html
p53
aVhttps://docs.python.org/2/library/email.util.html
p54
aVhttps://docs.python.org/2/library/uuid.html
p55
aVhttps://docs.python.org/2.2/lib/xmlreader-objects.html
p56
aVhttps://docs.python.org/2/genindex-K.html
p57
aVhttps://docs.python.org/2.2/lib/module-select.html
p58
aVhttps://docs.python.org/2/library/dircache.html
p59
aVhttps://docs.python.org/2/library/spwd.html
p60
aVhttps://docs.python.org/2/whatsnew/2.5.html
p61
aVhttps://docs.python.org/2.2/lib/binhex-notes.html
p62
aVhttps://docs.python.org/2/library/windows.html
p63
aVhttps://docs.python.org/2.2/lib/abstract-basic-auth-handler.html
p64
aVhttps://docs.python.org/2.2/lib/module-fl.html
p65
aVhttps://docs.python.org/2.2/lib/module-new.html
p66
aVhttps://docs.python.org/2.2/lib/node508.html
p67
aVhttps://docs.python.org/2/py-modindex.html
p68
aVhttps://docs.python.org/2/tutorial/interactive.html
p69
aVhttps://docs.python.org/2/library/decimal.html
p70
aVhttps://docs.python.org/2/genindex-I.html
p71
aVhttps://docs.python.org/2.2/lib/module-Tix.html
p72
aVhttps://docs.python.org/2.2/lib/module-os.html
p73
aVhttps://docs.python.org/2/genindex-O.html
p74
aVhttps://docs.python.org/2/library/fractions.html
p75
aVhttps://docs.python.org/2.2/ref/delimiters.html
p76
aVhttps://docs.python.org/2.2/lib/module-chunk.html
p77
aVhttps://docs.python.org/2.2/lib/telnet-example.html
p78
aVhttps://docs.python.org/2.2/dist/intro.html
p79
aVhttps://docs.python.org/2/library/xml.sax.html
p80
aVhttps://docs.python.org/2.2/doc/doc.html
p81
aVhttps://docs.python.org/2/library/macpath.html
p82
aVhttps://docs.python.org/2/howto/logging.html
p83
aVhttps://docs.python.org/2/library/unix.html
p84
aVhttps://docs.python.org/2.2/lib/module-xreadlines.html
p85
aVhttps://docs.python.org/2.2/lib/multifile-example.html
p86
aVhttps://docs.python.org/2.2/index.html
p87
aVhttps://docs.python.org/2.2/mac/IDEwrite.html
p88
aVhttps://docs.python.org/2.2/lib/debugger-commands.html
p89
aVhttps://docs.python.org/2/c-api/utilities.html
p90
aVhttps://docs.python.org/2.2/lib/node546.html
p91
aVhttps://docs.python.org/2.2/lib/ConfigParser-objects.html
p92
aVhttps://docs.python.org/2/library/asyncore.html
p93
aVhttps://docs.python.org/2/library/email.encoders.html
p94
aVhttps://docs.python.org/2.2/lib/node388.html
p95
aVhttps://docs.python.org/2.2/lib/strings.html
p96
aVhttps://docs.python.org/2.2/ref/numbers.html
p97
aVhttps://docs.python.org/2.2/lib/node517.html
p98
aVhttps://docs.python.org/2.2/lib/module-MimeWriter.html
p99
aVhttps://docs.python.org/2/library/gettext.html
p100
aVhttps://docs.python.org/2/library/carbon.html
p101
aVhttps://docs.python.org/2/library/email-examples.html
p102
aVhttps://docs.python.org/2.2/lib/cookie-objects.html
p103
aVhttps://docs.python.org/2/library/webbrowser.html
p104
aVhttps://docs.python.org/2.2/ref/break.html
p105
aVhttps://docs.python.org/2.2/lib/module-curses.html
p106
aVhttps://docs.python.org/2.2/ref/node102.html
p107
aVhttps://docs.python.org/2.2/ref/bitwise.html
p108
aVhttps://docs.python.org/2.2/lib/module-rgbimg.html
p109
aVhttps://docs.python.org/2/library/inspect.html
p110
aVhttps://docs.python.org/2/distutils/examples.html
p111
aVhttps://docs.python.org/2.2/lib/module-asyncore.html
p112
aVhttps://docs.python.org/2.2/lib/node562.html
p113
aVhttps://docs.python.org/2.2/mac/module-Carbon.List.html
p114
aVhttps://docs.python.org/2/library/ast.html
p115
aVhttps://docs.python.org/2.2/mac/module-Carbon.Help.html
p116
aVhttps://docs.python.org/2.2/lib/module-readline.html
p117
aVhttps://docs.python.org/2.2/api/node82.html
p118
aVhttps://docs.python.org/2.2/api/sequence-structs.html
p119
aVhttps://docs.python.org/2.2/api/memoryExamples.html
p120
aVhttps://docs.python.org/2.2/lib/rexec-objects.html
p121
aVhttps://docs.python.org/2.2/lib/module-imghdr.html
p122
aVhttps://docs.python.org/2.2/lib/module-xml.sax.xmlreader.html
p123
aVhttps://docs.python.org/2.2/mac/connection-object.html
p124
aVhttps://docs.python.org/2.2/api/node15.html
p125
aVhttps://docs.python.org/2/library/exceptions.html
p126
aVhttps://docs.python.org/2.2/lib/ssl-objects.html
p127
aVhttps://docs.python.org/2/library/sha.html
p128
aVhttps://docs.python.org/2.2/lib/tkinter-basic-mapping.html
p129
aVhttps://docs.python.org/2.2/lib/module-socket.html
p130
aVhttps://docs.python.org/2/library/gl.html
p131
aVhttps://docs.python.org/2/library/stdtypes.html
p132
aVhttps://docs.python.org/2/library/multifile.html
p133
aVhttps://docs.python.org/2.2/lib/bytecodes.html
p134
aVhttps://docs.python.org/2/library/sndhdr.html
p135
aVhttps://docs.python.org/2.2/lib/xdr-unpacker-objects.html
p136
aVhttps://docs.python.org/2/library/user.html
p137
aVhttps://docs.python.org/2/c-api/module.html
p138
aVhttps://docs.python.org/2.2/lib/node547.html
p139
aVhttps://docs.python.org/2/library/resource.html
p140
aVhttps://docs.python.org/2.2/lib/dbhash-objects.html
p141
aVhttps://docs.python.org/2.2/lib/node382.html
p142
aVhttps://docs.python.org/2/c-api/sys.html
p143
aVhttps://docs.python.org/2.2/lib/os-newstreams.html
p144
aVhttps://docs.python.org/2/library/tix.html
p145
aVhttps://docs.python.org/2/library/fpformat.html
p146
aVhttps://docs.python.org/2.2/mac/module-ColorPicker.html
p147
aVhttps://docs.python.org/2.2/lib/xdr-exceptions.html
p148
aVhttps://docs.python.org/2.2/lib/module-fileinput.html
p149
aVhttps://docs.python.org/2/using/mac.html
p150
aVhttps://docs.python.org/2.2/lib/reporting-bugs.html
p151
aVhttps://docs.python.org/2.2/lib/node126.html
p152
aVhttps://docs.python.org/2.2/lib/organizing-tests.html
p153
aVhttps://docs.python.org/2.2/lib/typesseq-strings.html
p154
aVhttps://docs.python.org/2.2/lib/typesmethods.html
p155
aVhttps://docs.python.org/2.2/doc/misc-text-markup.html
p156
aVhttps://docs.python.org/2.2/lib/mh-objects.html
p157
aVhttps://docs.python.org/2/library/dumbdbm.html
p158
aVhttps://docs.python.org/2.2/lib/dom-accessor-methods.html
p159
aVhttps://docs.python.org/2.2/mac/module-macostools.html
p160
aVhttps://docs.python.org/2.2/ref/ref.html
p161
aVhttps://docs.python.org/2.2/lib/module-tempfile.html
p162
aVhttps://docs.python.org/2/c-api/cobject.html
p163
aVhttps://docs.python.org/2.2/lib/shlex-objects.html
p164
aVhttps://docs.python.org/2/library/pprint.html
p165
aVhttps://docs.python.org/2.2/lib/MultiFile-objects.html
p166
aVhttps://docs.python.org/2.2/lib/expat-example.html
p167
aVhttps://docs.python.org/2.2/lib/module-pdb.html
p168
aVhttps://docs.python.org/2/tutorial/datastructures.html
p169
aVhttps://docs.python.org/2.2/lib/lock-objects.html
p170
aVhttps://docs.python.org/2/library/xml.sax.utils.html
p171
aVhttps://docs.python.org/2.2/ref/return.html
p172
aVhttps://docs.python.org/2.2/lib/module-nntplib.html
p173
aVhttps://docs.python.org/2.2/ref/exec.html
p174
aVhttps://docs.python.org/2/library/glob.html
p175
aVhttps://docs.python.org/2/library/autogil.html
p176
aVhttps://docs.python.org/2.2/ref/notation.html
p177
aVhttps://docs.python.org/2.2/ref/class.html
p178
aVhttps://docs.python.org/2.2/lib/module-sndhdr.html
p179
aVhttps://docs.python.org/2.2/mac/controlswindow-object.html
p180
aVhttps://docs.python.org/2/library/imageop.html
p181
aVhttps://docs.python.org/2/reference/datamodel.html
p182
aVhttps://docs.python.org/2/library/ctypes.html
p183
aVhttps://docs.python.org/2/library/development.html
p184
aVhttps://docs.python.org/2/library/random.html
p185
aVhttps://docs.python.org/2.2/inst/alt-install-windows.html
p186
aVhttps://docs.python.org/2/library/xml.etree.elementtree.html
p187
aVhttps://docs.python.org/2/library/importlib.html
p188
aVhttps://docs.python.org/2.2/lib/form-objects.html
p189
aVhttps://docs.python.org/2.2/lib/module-Bastion.html
p190
aVhttps://docs.python.org/2.2/lib/typesseq-mutable.html
p191
aVhttps://docs.python.org/2/library/strings.html
p192
aVhttps://docs.python.org/2.2/lib/module-array.html
p193
aVhttps://docs.python.org/2/library/misc.html
p194
aVhttps://docs.python.org/2.2/api/descriptor-objects.html
p195
aVhttps://docs.python.org/2.2/lib/httpresponse-objects.html
p196
aVhttps://docs.python.org/2/genindex-T.html
p197
aVhttps://docs.python.org/2.2/ref/string-catenation.html
p198
aVhttps://docs.python.org/2.2/lib/node519.html
p199
aVhttps://docs.python.org/2.2/acks.html
p200
aVhttps://docs.python.org/2.2/api/threads.html
p201
aVhttps://docs.python.org/2.2/lib/node66.html
p202
aVhttps://docs.python.org/2/library/gensuitemodule.html
p203
aVhttps://docs.python.org/2.2/lib/module-dl.html
p204
aVhttps://docs.python.org/2.2/mac/node34.html
p205
aVhttps://docs.python.org/2.2/lib/opener-director-objects.html
p206
aVhttps://docs.python.org/2.2/lib/node446.html
p207
aVhttps://docs.python.org/2.2/ref/about.html
p208
aVhttps://docs.python.org/2.2/ref/try.html
p209
aVhttps://docs.python.org/2.2/api/countingRefs.html
p210
aVhttps://docs.python.org/2/tutorial/floatingpoint.html
p211
aVhttps://docs.python.org/2.2/lib/module-sys.html
p212
aVhttps://docs.python.org/2.2/lib/node302.html
p213
aVhttps://docs.python.org/2.2/lib/module-htmlentitydefs.html
p214
aVhttps://docs.python.org/2.2/lib/mailbox-objects.html
p215
aVhttps://docs.python.org/2.2/mac/node23.html
p216
aVhttps://docs.python.org/2/c-api/dict.html
p217
aVhttps://docs.python.org/2.2/lib/module-errno.html
p218
aVhttps://docs.python.org/2/library/msilib.html
p219
aVhttps://docs.python.org/2.2/lib/dom-attributelist-objects.html
p220
aVhttps://docs.python.org/2.2/lib/bltin-type-objects.html
p221
aVhttps://docs.python.org/2/library/archiving.html
p222
aVhttps://docs.python.org/2/reference/expressions.html
p223
aVhttps://docs.python.org/2/genindex-_.html
p224
aVhttps://docs.python.org/2.2/ext/reporting-bugs.html
p225
aVhttps://docs.python.org/2/using/cmdline.html
p226
aVhttps://docs.python.org/2.2/api/typeObjects.html
p227
aVhttps://docs.python.org/2.2/mac/module-Nac.html
p228
aVhttps://docs.python.org/2.2/lib/datetime-objects.html
p229
aVhttps://docs.python.org/2/copyright.html
p230
aVhttps://docs.python.org/2/c-api/typeobj.html
p231
aVhttps://docs.python.org/2.2/lib/node299.html
p232
aVhttps://docs.python.org/2.2/lib/node202.html
p233
aVhttps://docs.python.org/2.2/lib/node396.html
p234
aVhttps://docs.python.org/2.2/lib/module-turtle.html
p235
aVhttps://docs.python.org/2.2/ext/front.html
p236
aVhttps://docs.python.org/2/genindex-D.html
p237
aVhttps://docs.python.org/2/genindex-L.html
p238
aVhttps://docs.python.org/2/library/custominterp.html
p239
aVhttps://docs.python.org/2.2/lib/au-write-objects.html
p240
aVhttps://docs.python.org/2/library/tkinter.html
p241
aVhttps://docs.python.org/2.2/doc/latex-syntax.html
p242
aVhttps://docs.python.org/2/whatsnew/2.7.html
p243
aVhttps://docs.python.org/2/library/restricted.html
p244
aVhttps://docs.python.org/2.2/lib/node566.html
p245
aVhttps://docs.python.org/2.2/ref/physical.html
p246
aVhttps://docs.python.org/2.2/lib/module-mimify.html
p247
aVhttps://docs.python.org/2.2/lib/module-grp.html
p248
aVhttps://docs.python.org/2.2/mac/argv.html
p249
aVhttps://docs.python.org/2/howto/argparse.html
p250
aVhttps://docs.python.org/2.2/doc/preamble-info.html
p251
aVhttps://docs.python.org/2.2/lib/typesother.html
p252
aVhttps://docs.python.org/2.2/lib/node212.html
p253
aVhttps://docs.python.org/2.2/lib/node85.html
p254
aVhttps://docs.python.org/2/library/marshal.html
p255
aVhttps://docs.python.org/2/library/dbm.html
p256
aVhttps://docs.python.org/2.2/mac/undocumented-modules.html
p257
aVhttps://docs.python.org/2.2/mac/front.html
p258
aVhttps://docs.python.org/2/library/mailcap.html
p259
aVhttps://docs.python.org/2/library/framework.html
p260
aVhttps://docs.python.org/2.2/lib/node205.html
p261
aVhttps://docs.python.org/2.2/lib/node565.html
p262
aVhttps://docs.python.org/2.2/lib/module-tty.html
p263
aVhttps://docs.python.org/2/library/traceback.html
p264
aVhttps://docs.python.org/2.2/lib/testcase-objects.html
p265
aVhttps://docs.python.org/2.2/lib/node210.html
p266
aVhttps://docs.python.org/2.2/lib/module-al-constants.html
p267
aVhttps://docs.python.org/2.2/lib/module-sgmllib.html
p268
aVhttps://docs.python.org/2.2/lib/event-objects.html
p269
aVhttps://docs.python.org/2.2/tut/node11.html
p270
aVhttps://docs.python.org/2.2/lib/bitstring-ops.html
p271
aVhttps://docs.python.org/2/library/smtplib.html
p272
aVhttps://docs.python.org/2.2/lib/msvcrt-other.html
p273
aVhttps://docs.python.org/2.2/api/complexObjects.html
p274
aVhttps://docs.python.org/2/library/xml.sax.handler.html
p275
aVhttps://docs.python.org/2/library/copy_reg.html
p276
aVhttps://docs.python.org/2.2/lib/http-basic-auth-handler.html
p277
aVhttps://docs.python.org/2.2/ext/building.html
p278
aVhttps://docs.python.org/2/library/json.html
p279
aVhttps://docs.python.org/2.2/api/cObjects.html
p280
aVhttps://docs.python.org/2.2/inst/non-ms-compilers.html
p281
aVhttps://docs.python.org/2.2/lib/module-user.html
p282
aVhttps://docs.python.org/2.2/mac/module-FrameWork.html
p283
aVhttps://docs.python.org/2/library/time.html
p284
aVhttps://docs.python.org/2.2/ref/exprstmts.html
p285
aVhttps://docs.python.org/2.2/lib/os-path.html
p286
aVhttps://docs.python.org/2.2/ref/module-future.html
p287
aVhttps://docs.python.org/2.2/lib/https-handler-objects.html
p288
aVhttps://docs.python.org/2.2/ext/methodTable.html
p289
aVhttps://docs.python.org/2.2/lib/embedding-locale.html
p290
aVhttps://docs.python.org/2.2/mac/IDEexecution.html
p291
aVhttps://docs.python.org/2.2/mac/interpreter.html
p292
aVhttps://docs.python.org/2/library/queue.html
p293
aVhttps://docs.python.org/2/library/aetools.html
p294
aVhttps://docs.python.org/2.2/api/example-cycle-support.html
p295
aVhttps://docs.python.org/2.2/lib/node563.html
p296
aVhttps://docs.python.org/2.2/api/otherObjects.html
p297
aVhttps://docs.python.org/2.2/ext/cplusplus.html
p298
aVhttps://docs.python.org/2.2/lib/rlock-objects.html
p299
aVhttps://docs.python.org/2/library/email.mime.html
p300
aVhttps://docs.python.org/2/library/cgihttpserver.html
p301
aVhttps://docs.python.org/2.2/lib/scheduler-objects.html
p302
aVhttps://docs.python.org/2.2/lib/serverproxy-objects.html
p303
aVhttps://docs.python.org/2.2/ref/function.html
p304
aVhttps://docs.python.org/2.2/lib/module-multifile.html
p305
aVhttps://docs.python.org/2.2/mac/module-macfs.html
p306
aVhttps://docs.python.org/2.2/api/memoryOverview.html
p307
aVhttps://docs.python.org/2/library/netdata.html
p308
aS'https://docs.python.org/2/'
p309
aVhttps://docs.python.org/2.2/ref/objects.html
p310
aVhttps://docs.python.org/2.2/lib/content-handler-objects.html
p311
aVhttps://docs.python.org/2.2/lib/module-filecmp.html
p312
aVhttps://docs.python.org/2/c-api/index.html
p313
aVhttps://docs.python.org/2.2/lib/profile-calibration.html
p314
aVhttps://docs.python.org/2/c-api/allocation.html
p315
aVhttps://docs.python.org/2/distutils/introduction.html
p316
aVhttps://docs.python.org/2.2/lib/file-handler-objects.html
p317
aVhttps://docs.python.org/2.2/lib/obsolete-modules.html
p318
aVhttps://docs.python.org/2.2/api/marshalling-utils.html
p319
aVhttps://docs.python.org/2.2/lib/operator-map.html
p320
aVhttps://docs.python.org/2.2/api/common-structs.html
p321
aVhttps://docs.python.org/2.2/ref/types.html
p322
aVhttps://docs.python.org/2.2/api/fileObjects.html
p323
aVhttps://docs.python.org/2/c-api/mapping.html
p324
aVhttps://docs.python.org/2/reference/simple_stmts.html
p325
aVhttps://docs.python.org/2/library/hashlib.html
p326
aVhttps://docs.python.org/2.2/ref/attribute-access.html
p327
aVhttps://docs.python.org/2/library/functools.html
p328
aVhttps://docs.python.org/2.2/lib/template-objects.html
p329
aVhttps://docs.python.org/2.2/lib/module-math.html
p330
aVhttps://docs.python.org/2.2/lib/weakref-objects.html
p331
aVhttps://docs.python.org/2.2/lib/module-hmac.html
p332
aVhttps://docs.python.org/2.2/api/memory.html
p333
aVhttps://docs.python.org/2.2/doc/structured.html
p334
aVhttps://docs.python.org/2.2/lib/module-SimpleXMLRPCServer.html
p335
aVhttps://docs.python.org/2.2/api/slice-objects.html
p336
aVhttps://docs.python.org/2/library/sys.html
p337
aVhttps://docs.python.org/2/faq/windows.html
p338
aVhttps://docs.python.org/2/library/future_builtins.html
p339
aVhttps://docs.python.org/2.2/mac/module-AE.html
p340
aVhttps://docs.python.org/2.2/mac/module-W.html
p341
aVhttps://docs.python.org/2.2/api/buffer-structs.html
p342
aVhttps://docs.python.org/2.2/lib/module-email.Errors.html
p343
aVhttps://docs.python.org/2.2/lib/attributes-objects.html
p344
aVhttps://docs.python.org/2/reference/lexical_analysis.html
p345
aVhttps://docs.python.org/2/c-api/method.html
p346
aVhttps://docs.python.org/2/library/new.html
p347
aVhttps://docs.python.org/2/library/rfc822.html
p348
aVhttps://docs.python.org/2.2/lib/Cmd-objects.html
p349
aVhttps://docs.python.org/2.2/ref/power.html
p350
aVhttps://docs.python.org/2.2/lib/module-copyreg.html
p351
aVhttps://docs.python.org/2.2/lib/module-gdbm.html
p352
aVhttps://docs.python.org/2.2/api/supporting-cycle-detection.html
p353
aVhttps://docs.python.org/2.2/lib/typesseq-xrange.html
p354
aVhttps://docs.python.org/2.2/api/processControl.html
p355
aVhttps://docs.python.org/2/genindex-Z.html
p356
aVhttps://docs.python.org/2.2/api/instanceObjects.html
p357
aVhttps://docs.python.org/2.2/lib/module-fcntl.html
p358
aVhttps://docs.python.org/2.2/lib/writer-interface.html
p359
aVhttps://docs.python.org/2/library/plistlib.html
p360
aVhttps://docs.python.org/2.2/lib/node545.html
p361
aVhttps://docs.python.org/2/howto/webservers.html
p362
aVhttps://docs.python.org/2.2/lib/node511.html
p363
aVhttps://docs.python.org/2/extending/building.html
p364
aVhttps://docs.python.org/2.2/lib/module-symbol.html
p365
aVhttps://docs.python.org/2.2/ext/ownershipRules.html
p366
aVhttps://docs.python.org/2/library/othergui.html
p367
aVhttps://docs.python.org/2.2/lib/expat-errors.html
p368
aVhttps://docs.python.org/2/library/stat.html
p369
aVhttps://docs.python.org/2.2/lib/module-sunaudiodev-constants.html
p370
aVhttps://docs.python.org/2.2/api/objects.html
p371
aVhttps://docs.python.org/2.2/lib/node529.html
p372
aVhttps://docs.python.org/2/whatsnew/2.3.html
p373
aVhttps://docs.python.org/2/c-api/init.html
p374
aVhttps://docs.python.org/2.2/lib/module-shutil.html
p375
aVhttps://docs.python.org/2.2/ext/node23.html
p376
aVhttps://docs.python.org/2.2/mac/node95.html
p377
aVhttps://docs.python.org/2/genindex-C.html
p378
aVhttps://docs.python.org/2.2/api/types.html
p379
aVhttps://docs.python.org/2/library/ssl.html
p380
aVhttps://docs.python.org/2/faq/design.html
p381
aVhttps://docs.python.org/2/library/token.html
p382
aVhttps://docs.python.org/2.2/ext/node24.html
p383
aVhttps://docs.python.org/2/library/functions.html
p384
aVhttps://docs.python.org/2.2/tut/node10.html
p385
aVhttps://docs.python.org/2/library/cgitb.html
p386
aVhttps://docs.python.org/2.2/mac/module-macspeech.html
p387
aVhttps://docs.python.org/2.2/lib/module-StringIO.html
p388
aVhttps://docs.python.org/2.2/lib/module-httplib.html
p389
aVhttps://docs.python.org/2.2/ext/node45.html
p390
aVhttps://docs.python.org/2.2/lib/module-base64.html
p391
aVhttps://docs.python.org/2.2/lib/module-urllib.html
p392
aVhttps://docs.python.org/2/genindex-W.html
p393
aVhttps://docs.python.org/2.2/lib/idle.html
p394
aVhttps://docs.python.org/2/library/anydbm.html
p395
aVhttps://docs.python.org/2.2/mac/module-findertools.html
p396
aVhttps://docs.python.org/2.2/lib/node559.html
p397
aVhttps://docs.python.org/2.2/api/about.html
p398
aVhttps://docs.python.org/2.2/lib/module-tokenize.html
p399
aVhttps://docs.python.org/2.2/mac/toolbox.html
p400
aVhttps://docs.python.org/2.2/ref/definitions.html
p401
aVhttps://docs.python.org/2.2/inst/inst.html
p402
aVhttps://docs.python.org/2.2/ref/binary.html
p403
aVhttps://docs.python.org/2.2/lib/module-unicodedata.html
p404
aVhttps://docs.python.org/2.2/lib/zipfile-objects.html
p405
aVhttps://docs.python.org/2/library/thread.html
p406
aVhttps://docs.python.org/2/genindex-U.html
p407
aVhttps://docs.python.org/2.2/lib/mimetypes-objects.html
p408
aVhttps://docs.python.org/2.2/lib/module-operator.html
p409
aVhttps://docs.python.org/2.2/api/supporting-iteration.html
p410
aVhttps://docs.python.org/2/library/runpy.html
p411
aVhttps://docs.python.org/2/library/someos.html
p412
aVhttps://docs.python.org/2/c-api/gcsupport.html
p413
aVhttps://docs.python.org/2.2/mac/node7.html
p414
aVhttps://docs.python.org/2.2/ext/dnt-type-methods.html
p415
aVhttps://docs.python.org/2/library/msvcrt.html
p416
aVhttps://docs.python.org/2.2/doc/grammar-displays.html
p417
aVhttps://docs.python.org/2.2/lib/node564.html
p418
aVhttps://docs.python.org/2/c-api/conversion.html
p419
aVhttps://docs.python.org/2/library/__builtin__.html
p420
aVhttps://docs.python.org/2.2/lib/request-objects.html
p421
aVhttps://docs.python.org/2/c-api/objbuffer.html
p422
aVhttps://docs.python.org/2.2/lib/module-email.html
p423
aVhttps://docs.python.org/2/library/whichdb.html
p424
aVhttps://docs.python.org/2/library/aifc.html
p425
aVhttps://docs.python.org/2.2/lib/node102.html
p426
aVhttps://docs.python.org/2.2/doc/tools.html
p427
aVhttps://docs.python.org/2.2/api/includes.html
p428
aVhttps://docs.python.org/2.2/lib/typesfunctions.html
p429
aVhttps://docs.python.org/2.2/lib/module-msvcrt.html
p430
aVhttps://docs.python.org/2/library/socket.html
p431
aVhttps://docs.python.org/2/library/email.charset.html
p432
aVhttps://docs.python.org/2/extending/windows.html
p433
aVhttps://docs.python.org/2/reference/toplevel_components.html
p434
aVhttps://docs.python.org/2.2/api/node81.html
p435
aVhttps://docs.python.org/2/c-api/sequence.html
p436
aVhttps://docs.python.org/2.2/lib/module-md5.html
p437
aVhttps://docs.python.org/2.2/lib/module-uu.html
p438
aVhttps://docs.python.org/2.2/lib/lib.html
p439
aVhttps://docs.python.org/2.2/lib/module-xml.dom.html
p440
aVhttps://docs.python.org/2/c-api/refcounting.html
p441
aVhttps://docs.python.org/2/library/bz2.html
p442
aVhttps://docs.python.org/2/genindex-S.html
p443
aVhttps://docs.python.org/2/c-api/descriptor.html
p444
aVhttps://docs.python.org/2.2/lib/inspect-source.html
p445
aVhttps://docs.python.org/2.2/ref/lexical.html
p446
aVhttps://docs.python.org/2/library/fcntl.html
p447
aVhttps://docs.python.org/2.2/whatsnew/node8.html
p448
aVhttps://docs.python.org/2.2/ext/callingPython.html
p449
aVhttps://docs.python.org/2/tutorial/modules.html
p450
aVhttps://docs.python.org/2/library/fileformats.html
p451
aVhttps://docs.python.org/2.2/ref/blank-lines.html
p452
aVhttps://docs.python.org/2/tutorial/errors.html
p453
aVhttps://docs.python.org/2/c-api/cell.html
p454
aVhttps://docs.python.org/2.2/whatsnew/node10.html
p455
aVhttps://docs.python.org/2/library/urllib2.html
p456
aVhttps://docs.python.org/2/library/urllib.html
p457
aVhttps://docs.python.org/2.2/lib/module-syslog.html
p458
aVhttps://docs.python.org/2.2/lib/curses-textpad-objects.html
p459
aVhttps://docs.python.org/2.2/api/arg-parsing.html
p460
aVhttps://docs.python.org/2.2/ext/link-reqs.html
p461
aVhttps://docs.python.org/2.2/lib/module-mmap.html
p462
aVhttps://docs.python.org/2/distutils/packageindex.html
p463
aVhttps://docs.python.org/2.2/ref/subscriptions.html
p464
aVhttps://docs.python.org/2.2/lib/module-doctest.html
p465
aVhttps://docs.python.org/2/library/wave.html
p466
aVhttps://docs.python.org/2.2/lib/testsuite-objects.html
p467
aVhttps://docs.python.org/2.2/lib/module-tabnanny.html
p468
aVhttps://docs.python.org/2.2/lib/module-code.html
p469
aVhttps://docs.python.org/2.2/inst/custom-install.html
p470
aVhttps://docs.python.org/2/distutils/sourcedist.html
p471
aVhttps://docs.python.org/2.2/ext/backToExample.html
p472
aVhttps://docs.python.org/2.2/lib/node542.html
p473
aVhttps://docs.python.org/2/library/intro.html
p474
aVhttps://docs.python.org/2/genindex.html
p475
aVhttps://docs.python.org/2/reference/grammar.html
p476
aVhttps://docs.python.org/2.2/lib/undoc.html
p477
aVhttps://docs.python.org/2.2/lib/httplib-examples.html
p478
aVhttps://docs.python.org/2.2/lib/boolean.html
p479
aVhttps://docs.python.org/2/library/bsddb.html
p480
aVhttps://docs.python.org/2.2/mac/module-Carbon.Menu.html
p481
aVhttps://docs.python.org/2.2/lib/os-fd-ops.html
p482
aVhttps://docs.python.org/2.2/lib/module-fm.html
p483
aVhttps://docs.python.org/2.2/lib/module-sha.html
p484
aVhttps://docs.python.org/2.2/lib/node385.html
p485
aVhttps://docs.python.org/2/library/xml.dom.html
p486
aVhttps://docs.python.org/2/library/re.html
p487
aVhttps://docs.python.org/2/genindex-B.html
p488
aVhttps://docs.python.org/2.2/mac/modindex.html
p489
aVhttps://docs.python.org/2.2/lib/module-time.html
p490
aVhttps://docs.python.org/2/library/macos.html
p491
aVhttps://docs.python.org/2.2/mac/module-Carbon.AE.html
p492
aVhttps://docs.python.org/2/library/unittest.html
p493
aVhttps://docs.python.org/2.2/lib/dom-attr-objects.html
p494
aVhttps://docs.python.org/2/library/symtable.html
p495
aVhttps://docs.python.org/2/c-api/iter.html
p496
aVhttps://docs.python.org/2/library/cgi.html
p497
aVhttps://docs.python.org/2.2/mac/module-macpath.html
p498
aVhttps://docs.python.org/2/library/commands.html
p499
aVhttps://docs.python.org/2.2/lib/module-imp.html
p500
aVhttps://docs.python.org/2/library/calendar.html
p501
aVhttps://docs.python.org/2.2/ext/parseTupleAndKeywords.html
p502
aVhttps://docs.python.org/2/howto/logging-cookbook.html
p503
aVhttps://docs.python.org/2.2/api/node80.html
p504
aVhttps://docs.python.org/2.2/lib/module-curses.textpad.html
p505
aVhttps://docs.python.org/2/library/getpass.html
p506
aVhttps://docs.python.org/2.2/lib/module-curses.panel.html
p507
aVhttps://docs.python.org/2/library/parser.html
p508
aVhttps://docs.python.org/2.2/doc/tools-internal.html
p509
aVhttps://docs.python.org/2.2/api/exceptionHandling.html
p510
aVhttps://docs.python.org/2.2/lib/formatter-interface.html
p511
aVhttps://docs.python.org/2.2/lib/popen2-flow-control.html
p512
aVhttps://docs.python.org/2.2/lib/module-gl.html
p513
aVhttps://docs.python.org/2.2/lib/node62.html
p514
aVhttps://docs.python.org/2.2/lib/asyncore-example.html
p515
aVhttps://docs.python.org/2.2/lib/module-imgfile.html
p516
aVhttps://docs.python.org/2.2/ref/yield.html
p517
aVhttps://docs.python.org/2.2/lib/module-colorsys.html
p518
aVhttps://docs.python.org/2.2/ref/pass.html
p519
aVhttps://docs.python.org/2.2/api/concrete.html
p520
aVhttps://docs.python.org/2.2/lib/bisect-example.html
p521
aVhttps://docs.python.org/2.2/lib/node213.html
p522
aVhttps://docs.python.org/2.2/lib/node265.html
p523
aVhttps://docs.python.org/2.2/lib/match-objects.html
p524
aVhttps://docs.python.org/2.2/lib/module-poplib.html
p525
aVhttps://docs.python.org/2/library/types.html
p526
aVhttps://docs.python.org/2.2/lib/genindex.html
p527
aVhttps://docs.python.org/2.2/doc/table-markup.html
p528
aVhttps://docs.python.org/2.2/lib/node216.html
p529
aVhttps://docs.python.org/2.2/lib/node298.html
p530
aVhttps://docs.python.org/2.2/lib/node275.html
p531
aVhttps://docs.python.org/2.2/ext/errors.html
p532
aVhttps://docs.python.org/2/tutorial/controlflow.html
p533
aVhttps://docs.python.org/2/library/quopri.html
p534
aVhttps://docs.python.org/2/library/ic.html
p535
aVhttps://docs.python.org/2/library/weakref.html
p536
aVhttps://docs.python.org/2.2/lib/os-file-dir.html
p537
aVhttps://docs.python.org/2.2/lib/readline-example.html
p538
aVhttps://docs.python.org/2/library/mailbox.html
p539
aVhttps://docs.python.org/2.2/tut/node4.html
p540
aVhttps://docs.python.org/2/library/aetypes.html
p541
aVhttps://docs.python.org/2.2/lib/rexec-extension.html
p542
aVhttps://docs.python.org/2/library/mm.html
p543
aVhttps://docs.python.org/2/distutils/builtdist.html
p544
aVhttps://docs.python.org/2.2/api/numericObjects.html
p545
aVhttps://docs.python.org/2/library/pickletools.html
p546
aVhttps://docs.python.org/2.2/lib/gopher-handler.html
p547
aVhttps://docs.python.org/2.2/lib/entity-resolver-objects.html
p548
aVhttps://docs.python.org/2/library/logging.handlers.html
p549
aVhttps://docs.python.org/2.2/lib/module-email.Iterators.html
p550
aVhttps://docs.python.org/2.2/ref/augassign.html
p551
aVhttps://docs.python.org/2.2/api/refcountDetails.html
p552
aVhttps://docs.python.org/2/whatsnew/2.4.html
p553
aVhttps://docs.python.org/2/bugs.html
p554
aVhttps://docs.python.org/2/library/stringio.html
p555
aVhttps://docs.python.org/2/library/curses.ascii.html
p556
aVhttps://docs.python.org/2.2/whatsnew/sect-rellinks.html
p557
aVhttps://docs.python.org/2/distutils/configfile.html
p558
aVhttps://docs.python.org/2.2/doc/style-guide.html
p559
aVhttps://docs.python.org/2.2/mac/module-Carbon.App.html
p560
aVhttps://docs.python.org/2.2/lib/node209.html
p561
aVhttps://docs.python.org/2.2/ref/line-structure.html
p562
aVhttps://docs.python.org/2.2/lib/cookie-example.html
p563
aVhttps://docs.python.org/2.2/ref/programs.html
p564
aVhttps://docs.python.org/2.2/mac/module-Carbon.Win.html
p565
aVhttps://docs.python.org/2.2/mac/alias-objects.html
p566
aVhttps://docs.python.org/2/reference/executionmodel.html
p567
aVhttps://docs.python.org/2/c-api/objimpl.html
p568
aVhttps://docs.python.org/2/library/htmllib.html
p569
aVhttps://docs.python.org/2.2/lib/node283.html
p570
aVhttps://docs.python.org/2/library/cd.html
p571
aVhttps://docs.python.org/2.2/lib/module-pyclbr.html
p572
aVhttps://docs.python.org/2.2/mac/module-Carbon.Qt.html
p573
aVhttps://docs.python.org/2.2/lib/node518.html
p574
aVhttps://docs.python.org/2.2/lib/node60.html
p575
aVhttps://docs.python.org/2.2/doc/futures.html
p576
aVhttps://docs.python.org/2.2/mac/module-applesingle.html
p577
aVhttps://docs.python.org/2.2/lib/module-thread.html
p578
aVhttps://docs.python.org/2.2/lib/module-dbhash.html
p579
aVhttps://docs.python.org/2.2/ref/raise.html
p580
aVhttps://docs.python.org/2/genindex-M.html
p581
aVhttps://docs.python.org/2/c-api/bool.html
p582
aVhttps://docs.python.org/2.2/lib/pop3-example.html
p583
aVhttps://docs.python.org/2/library/xmlrpclib.html
p584
aVhttps://docs.python.org/2.2/api/noneObject.html
p585
aVhttps://docs.python.org/2/extending/index.html
p586
aVhttps://docs.python.org/2.2/lib/module-linecache.html
p587
aVhttps://docs.python.org/2/library/zlib.html
p588
aVhttps://docs.python.org/2.2/lib/timer-objects.html
p589
aVhttps://docs.python.org/2/library/multiprocessing.html
p590
aVhttps://docs.python.org/2.2/lib/module-sched.html
p591
aVhttps://docs.python.org/2/genindex-all.html
p592
aVhttps://docs.python.org/2.2/lib/node300.html
p593
aVhttps://docs.python.org/2.2/lib/module-getopt.html
p594
aVhttps://docs.python.org/2.2/lib/module-cmath.html
p595
aVhttps://docs.python.org/2.2/lib/imap4-objects.html
p596
aVhttps://docs.python.org/2.2/ref/lists.html
p597
aVhttps://docs.python.org/2/library/repr.html
p598
aVhttps://docs.python.org/2.2/api/veryhigh.html
p599
aVhttps://docs.python.org/2.2/mac/module-Carbon.Ctl.html
p600
aVhttps://docs.python.org/2.2/lib/node626.html
p601
aVhttps://docs.python.org/2.2/lib/audio-device-objects.html
p602
aVhttps://docs.python.org/2.2/api/iterator-objects.html
p603
aVhttps://docs.python.org/2.2/lib/node304.html
p604
aVhttps://docs.python.org/2.2/inst/trivial-install.html
p605
aVhttps://docs.python.org/2/library/base64.html
p606
aVhttps://docs.python.org/2.2/lib/node61.html
p607
aVhttps://docs.python.org/2/library/sgi.html
p608
aVhttps://docs.python.org/2.2/lib/module-gettext.html
p609
aVhttps://docs.python.org/2.2/lib/node199.html
p610
aVhttps://docs.python.org/2.2/mac/module-PixMapWrapper.html
p611
aVhttps://docs.python.org/2.2/ext/compilation.html
p612
aVhttps://docs.python.org/2.2/ext/simpleExample.html
p613
aVhttps://docs.python.org/2.2/lib/node395.html
p614
aVhttps://docs.python.org/2.2/lib/node523.html
p615
aVhttps://docs.python.org/2/library/binhex.html
p616
aVhttps://docs.python.org/2/library/tabnanny.html
p617
aVhttps://docs.python.org/2/library/datetime.html
p618
aVhttps://docs.python.org/2.2/lib/node204.html
p619
aVhttps://docs.python.org/2.2/lib/allos.html
p620
aVhttps://docs.python.org/2/c-api/abstract.html
p621
aVhttps://docs.python.org/2.2/lib/node621.html
p622
aVhttps://docs.python.org/2.2/lib/module-Queue.html
p623
aVhttps://docs.python.org/2.2/lib/module-htmllib.html
p624
aVhttps://docs.python.org/2.2/lib/module-xmlrpclib.html
p625
aVhttps://docs.python.org/2.2/whatsnew/contents.html
p626
aVhttps://docs.python.org/2.2/lib/module-formatter.html
p627
aVhttps://docs.python.org/2/library/distribution.html
p628
aVhttps://docs.python.org/2/library/fpectl.html
p629
aVhttps://docs.python.org/2/library/shlex.html
p630
aVhttps://docs.python.org/2.2/lib/other-gui-packages.html
p631
aVhttps://docs.python.org/2.2/tut/node15.html
p632
aVhttps://docs.python.org/2.2/lib/dom-text-objects.html
p633
aVhttps://docs.python.org/2.2/lib/sunos.html
p634
aVhttps://docs.python.org/2/library/doctest.html
p635
aVhttps://docs.python.org/2.2/doc/showing-examples.html
p636
aVhttps://docs.python.org/2/genindex-H.html
p637
aVhttps://docs.python.org/2.2/tut/about.html
p638
aVhttps://docs.python.org/2.2/lib/module-flp.html
p639
aVhttps://docs.python.org/2.2/mac/window-objects.html
p640
aVhttps://docs.python.org/2.2/ext/parseTuple.html
p641
aVhttps://docs.python.org/2/library/ttk.html
p642
aVhttps://docs.python.org/2/library/mimewriter.html
p643
aVhttps://docs.python.org/2.2/api/contents.html
p644
aVhttps://docs.python.org/2/library/frameworks.html
p645
aVhttps://docs.python.org/2.2/lib/modindex.html
p646
aVhttps://docs.python.org/2/c-api/set.html
p647
aVhttps://docs.python.org/2/library/__future__.html
p648
aVhttps://docs.python.org/2.2/lib/examples-imp.html
p649
aVhttps://docs.python.org/2.2/lib/node535.html
p650
aVhttps://docs.python.org/2/library/_winreg.html
p651
aVhttps://docs.python.org/2.2/ref/continue.html
p652
aVhttps://docs.python.org/2.2/ref/interactive.html
p653
aVhttps://docs.python.org/2.2/lib/stream-reader-objects.html
p654
aVhttps://docs.python.org/2.2/ext/nullPointers.html
p655
aVhttps://docs.python.org/2.2/mac/module-Nav.html
p656
aVhttps://docs.python.org/2/library/numbers.html
p657
aVhttps://docs.python.org/2.2/lib/SMTP-objects.html
p658
aVhttps://docs.python.org/2.2/ext/node25.html
p659
aVhttps://docs.python.org/2.2/mac/module-distutils.html
p660
aVhttps://docs.python.org/2.2/lib/posix-contents.html
p661
aVhttps://docs.python.org/2.2/doc/about.html
p662
aVhttps://docs.python.org/2.2/lib/cursespanel-functions.html
p663
aVhttps://docs.python.org/2.2/lib/http-digest-auth-handler.html
p664
aVhttps://docs.python.org/2.2/lib/profile-instant.html
p665
aVhttps://docs.python.org/2.2/api/sequenceObjects.html
p666
aVhttps://docs.python.org/2.2/lib/node309.html
p667
aVhttps://docs.python.org/2.2/lib/module-parser.html
p668
aVhttps://docs.python.org/2.2/lib/typeiter.html
p669
aVhttps://docs.python.org/2.2/lib/module-posix.html
p670
aVhttps://docs.python.org/2.2/mac/aeserver-objects.html
p671
aVhttps://docs.python.org/2.2/api/object.html
p672
aVhttps://docs.python.org/2.2/mac/module-Carbon.Scrap.html
p673
aVhttps://docs.python.org/2/library/statvfs.html
p674
aVhttps://docs.python.org/2.2/lib/domeventstream-objects.html
p675
aVhttps://docs.python.org/2/library/bdb.html
p676
aVhttps://docs.python.org/2.2/lib/node534.html
p677
aVhttps://docs.python.org/2/tutorial/inputoutput.html
p678
aVhttps://docs.python.org/2/genindex-F.html
p679
aVhttps://docs.python.org/2.2/api/newTypes.html
p680
aVhttps://docs.python.org/2.2/lib/module-commands.html
p681
aVhttps://docs.python.org/2.2/mac/node12.html
p682
aVhttps://docs.python.org/2/library/sunau.html
p683
aVhttps://docs.python.org/2.2/lib/input-source-objects.html
p684
aVhttps://docs.python.org/2.2/mac/module-Carbon.Snd.html
p685
aVhttps://docs.python.org/2.2/lib/specialattrs.html
p686
aVhttps://docs.python.org/2/extending/newtypes.html
p687
aVhttps://docs.python.org/2.2/lib/module-mailcap.html
p688
aVhttps://docs.python.org/2.2/lib/module-gzip.html
p689
aVhttps://docs.python.org/2.2/doc/meta-info.html
p690
aVhttps://docs.python.org/2.2/lib/bltin-ellipsis-object.html
p691
aVhttps://docs.python.org/2/library/i18n.html
p692
aVhttps://docs.python.org/2.2/ref/execmodel.html
p693
aVhttps://docs.python.org/2/library/site.html
p694
aVhttps://docs.python.org/2.2/lib/module-zlib.html
p695
aVhttps://docs.python.org/2.2/lib/profile-stats.html
p696
aVhttps://docs.python.org/2.2/lib/module-os.path.html
p697
aVhttps://docs.python.org/2.2/mac/node6.html
p698
aVhttps://docs.python.org/2.2/ref/identifiers.html
p699
aVhttps://docs.python.org/2/library/email.generator.html
p700
aVhttps://docs.python.org/2.2/lib/module-cStringIO.html
p701
aVhttps://docs.python.org/2.2/lib/pickle-sec.html
p702
aVhttps://docs.python.org/2/library/sqlite3.html
p703
aVhttps://docs.python.org/2.2/ref/global.html
p704
aVhttps://docs.python.org/2.2/lib/dom-comment-objects.html
p705
aVhttps://docs.python.org/2.2/ext/about.html
p706
aVhttps://docs.python.org/2.2/lib/atexit-example.html
p707
aVhttps://docs.python.org/2.2/lib/front.html
p708
aVhttps://docs.python.org/2.2/lib/node65.html
p709
aVhttps://docs.python.org/2.2/lib/urlopener-objs.html
p710
aVhttps://docs.python.org/2.2/lib/module-compiler.ast.html
p711
aVhttps://docs.python.org/2/library/codeop.html
p712
aVhttps://docs.python.org/2/howto/cporting.html
p713
aVhttps://docs.python.org/2.2/ref/summary.html
p714
aVhttps://docs.python.org/2/faq/gui.html
p715
aVhttps://docs.python.org/2/library/filecmp.html
p716
aVhttps://docs.python.org/2.2/mac/module-nsremote.html
p717
aVhttps://docs.python.org/2.2/lib/module-statcache.html
p718
aVhttps://docs.python.org/2.2/lib/node597.html
p719
aVhttps://docs.python.org/2.2/lib/testloader-objects.html
p720
aVhttps://docs.python.org/2.2/ref/parenthesized.html
p721
aVhttps://docs.python.org/2/library/chunk.html
p722
aVhttps://docs.python.org/2.2/lib/traceback-example.html
p723
aVhttps://docs.python.org/2.2/ref/while.html
p724
aVhttps://docs.python.org/2.2/api/intro.html
p725
aVhttps://docs.python.org/2.2/ext/refcountsInPython.html
p726
aVhttps://docs.python.org/2.2/lib/module-fnmatch.html
p727
aVhttps://docs.python.org/2.2/mac/module-icopen.html
p728
aVhttps://docs.python.org/2.2/lib/bltin-code-objects.html
p729
aVhttps://docs.python.org/2.2/ref/future-statements.html
p730
aVhttps://docs.python.org/2/library/atexit.html
p731
aVhttps://docs.python.org/2.2/lib/netdata.html
p732
aVhttps://docs.python.org/2/whatsnew/2.2.html
p733
aVhttps://docs.python.org/2.2/lib/node206.html
p734
aVhttps://docs.python.org/2.2/lib/module-pickle.html
p735
aVhttps://docs.python.org/2.2/ref/id-classes.html
p736
aVhttps://docs.python.org/2.2/lib/module-statvfs.html
p737
aVhttps://docs.python.org/2.2/lib/module-Cookie.html
p738
aVhttps://docs.python.org/2/library/urlparse.html
p739
aVhttps://docs.python.org/2.2/lib/mutex-objects.html
p740
aVhttps://docs.python.org/2/library/compiler.html
p741
aVhttps://docs.python.org/2/library/easydialogs.html
p742
aVhttps://docs.python.org/2.2/lib/condition-objects.html
p743
aVhttps://docs.python.org/2.2/lib/module-stat.html
p744
aVhttps://docs.python.org/2.2/mac/mac.html
p745
aVhttps://docs.python.org/2.2/lib/node512.html
p746
aVhttps://docs.python.org/2/c-api/weakref.html
p747
aVhttps://docs.python.org/2.2/lib/module-token.html
p748
aVhttps://docs.python.org/2.2/lib/module-calendar.html
p749
aVhttps://docs.python.org/2.2/inst/standard-install.html
p750
aVhttps://docs.python.org/2/library/warnings.html
p751
aVhttps://docs.python.org/2/library/userdict.html
p752
aVhttps://docs.python.org/2/library/wsgiref.html
p753
aVhttps://docs.python.org/2.2/lib/node560.html
p754
aVhttps://docs.python.org/2.2/lib/module-fpformat.html
p755
aVhttps://docs.python.org/2.2/mac/module-Carbon.Qdoffs.html
p756
aVhttps://docs.python.org/2.2/lib/node541.html
p757
aVhttps://docs.python.org/2/whatsnew/2.6.html
p758
aVhttps://docs.python.org/2.2/lib/module-telnetlib.html
p759
aVhttps://docs.python.org/2.2/api/number-structs.html
p760
aVhttps://docs.python.org/2/library/operator.html
p761
aVhttps://docs.python.org/2.2/lib/Wave-write-objects.html
p762
aVhttps://docs.python.org/2/library/dbhash.html
p763
aVhttps://docs.python.org/2.2/lib/typesinternal.html
p764
aVhttps://docs.python.org/2.2/lib/warning-categories.html
p765
aVhttps://docs.python.org/2.2/lib/someos.html
p766
aVhttps://docs.python.org/2.2/ext/distributing.html
p767
aVhttps://docs.python.org/2/library/sched.html
p768
aVhttps://docs.python.org/2.2/lib/node123.html
p769
aVhttps://docs.python.org/2.2/dist/about.html
p770
aVhttps://docs.python.org/2.2/api/sequence.html
p771
aVhttps://docs.python.org/2.2/mac/module-ic.html
p772
aVhttps://docs.python.org/2/distributing/index.html
p773
aVhttps://docs.python.org/2/reference/compound_stmts.html
p774
aVhttps://docs.python.org/2.2/ext/contents.html
p775
aVhttps://docs.python.org/2.2/lib/module-glob.html
p776
aVhttps://docs.python.org/2/library/posix.html
p777
aVhttps://docs.python.org/2.2/ref/atom-literals.html
p778
aVhttps://docs.python.org/2.2/doc/latex-primer.html
p779
aVhttps://docs.python.org/2.2/lib/node510.html
p780
aVhttps://docs.python.org/2/library/tokenize.html
p781
aVhttps://docs.python.org/2.2/lib/module-DEVICE.html
p782
aVhttps://docs.python.org/2/c-api/none.html
p783
aVhttps://docs.python.org/2.2/lib/module-dircache.html
p784
aVhttps://docs.python.org/2.2/mac/module-macfsn.html
p785
aVhttps://docs.python.org/2.2/lib/module--winreg.html
p786
aVhttps://docs.python.org/2/library/docxmlrpcserver.html
p787
aVhttps://docs.python.org/2/library/dl.html
p788
aVhttps://docs.python.org/2/library/index.html
p789
aVhttps://docs.python.org/2.2/lib/profile.html
p790
aVhttps://docs.python.org/2/library/mutex.html
p791
aVhttps://docs.python.org/2/search.html
p792
aVhttps://docs.python.org/2.2/lib/module-cPickle.html
p793
aVhttps://docs.python.org/2.2/ref/other-tokens.html
p794
aVhttps://docs.python.org/2.2/lib/addresslist-objects.html
p795
aVhttps://docs.python.org/2.2/lib/node628.html
p796
aVhttps://docs.python.org/2.2/lib/module-xmllib.html
p797
aVhttps://docs.python.org/2.2/lib/browser-controllers.html
p798
aVhttps://docs.python.org/2.2/lib/node124.html
p799
aVhttps://docs.python.org/2.2/mac/IDE.html
p800
aVhttps://docs.python.org/2.2/lib/module-webbrowser.html
p801
aVhttps://docs.python.org/2/c-api/import.html
p802
aVhttps://docs.python.org/2/library/imgfile.html
p803
aVhttps://docs.python.org/2.2/mac/module-Carbon.Res.html
p804
aVhttps://docs.python.org/2.2/ref/evalorder.html
p805
aVhttps://docs.python.org/2.2/lib/sequence-matcher.html
p806
aVhttps://docs.python.org/2.2/mac/module-MacOS.html
p807
aVhttps://docs.python.org/2.2/lib/completer-objects.html
p808
aVhttps://docs.python.org/2/c-api/float.html
p809
aVhttps://docs.python.org/2.2/ref/callable-types.html
p810
aVhttps://docs.python.org/2/library/netrc.html
p811
aVhttps://docs.python.org/2.2/lib/module-robotparser.html
p812
aVhttps://docs.python.org/2.2/lib/module-curses.ascii.html
p813
aVhttps://docs.python.org/2.2/ref/operators.html
p814
aVhttps://docs.python.org/2/library/pkgutil.html
p815
aVhttps://docs.python.org/2.2/lib/comparisons.html
p816
aVhttps://docs.python.org/2.2/lib/node59.html
p817
aVhttps://docs.python.org/2.2/lib/contents.html
p818
aVhttps://docs.python.org/2.2/lib/node612.html
p819
aVhttps://docs.python.org/2/library/al.html
p820
aVhttps://docs.python.org/2.2/lib/typesseq.html
p821
aVhttps://docs.python.org/2/library/posixfile.html
p822
aVhttps://docs.python.org/2.2/lib/module-binascii.html
p823
aVhttps://docs.python.org/2.2/lib/debugger-hooks.html
p824
aVhttps://docs.python.org/2.2/lib/string-methods.html
p825
aVhttps://docs.python.org/2/library/robotparser.html
p826
aVhttps://docs.python.org/2.2/lib/shutil-example.html
p827
aVhttps://docs.python.org/2.2/whatsnew/node11.html
p828
aVhttps://docs.python.org/2/library/logging.config.html
p829
aVhttps://docs.python.org/2.2/doc/module-markup.html
p830
aVhttps://docs.python.org/2/library/dis.html
p831
aVhttps://docs.python.org/2.2/lib/module-mutex.html
p832
aVhttps://docs.python.org/2.2/mac/application-objects.html
p833
aVhttps://docs.python.org/2.2/mac/module-Carbon.Cm.html
p834
aVhttps://docs.python.org/2.2/api/bufferObjects.html
p835
aVhttps://docs.python.org/2.2/lib/module-whichdb.html
p836
aVhttps://docs.python.org/2.2/doc/intro.html
p837
aVhttps://docs.python.org/2.2/api/refcounts.html
p838
aVhttps://docs.python.org/2/library/email.message.html
p839
aVhttps://docs.python.org/2.2/ref/string-conversions.html
p840
aVhttps://docs.python.org/2.2/api/genindex.html
p841
aVhttps://docs.python.org/2/library/macosa.html
p842
aVhttps://docs.python.org/2.2/api/listObjects.html
p843
aVhttps://docs.python.org/2.2/mac/module-pythonprefs.html
p844
aVhttps://docs.python.org/2/whatsnew/2.0.html
p845
aVhttps://docs.python.org/2.2/api/iterator.html
p846
aVhttps://docs.python.org/2/c-api/complex.html
p847
aVhttps://docs.python.org/2/genindex-A.html
p848
aVhttps://docs.python.org/2/library/linecache.html
p849
aVhttps://docs.python.org/2.2/ref/customization.html
p850
aVhttps://docs.python.org/2.2/lib/node585.html
p851
aVhttps://docs.python.org/2.2/api/standardExceptions.html
p852
aVhttps://docs.python.org/2.2/api/utilities.html
p853
aVhttps://docs.python.org/2.2/tut/tut.html
p854
aVhttps://docs.python.org/2.2/lib/dom-example.html
p855
aVhttps://docs.python.org/2.2/ext/embeddingInCplusplus.html
p856
aVhttps://docs.python.org/2/distutils/extending.html
p857
aVhttps://docs.python.org/2.2/ref/unary.html
p858
aVhttps://docs.python.org/2.2/api/method-objects.html
p859
aVhttps://docs.python.org/2/library/unicodedata.html
p860
aVhttps://docs.python.org/2.2/lib/dom-nodelist-objects.html
p861
aVhttps://docs.python.org/2.2/lib/re-syntax.html
p862
aVhttps://docs.python.org/2/library/pyexpat.html
p863
aVhttps://docs.python.org/2.2/lib/module-email.Encoders.html
p864
aVhttps://docs.python.org/2/c-api/number.html
p865
aVhttps://docs.python.org/2/c-api/codec.html
p866
aVhttps://docs.python.org/2.2/lib/restricted.html
p867
aVhttps://docs.python.org/2.2/mac/getting.html
p868
aVhttps://docs.python.org/2/library/rlcompleter.html
p869
aVhttps://docs.python.org/2.2/lib/module-imaplib.html
p870
aVhttps://docs.python.org/2.2/lib/module-Tkinter.html
p871
aVhttps://docs.python.org/2.2/lib/unknown-handler-objects.html
p872
aVhttps://docs.python.org/2.2/ext/thinIce.html
p873
aVhttps://docs.python.org/2.2/lib/module-mhlib.html
p874
aVhttps://docs.python.org/2.2/lib/module-codeop.html
p875
aVhttps://docs.python.org/2/library/curses.panel.html
p876
aVhttps://docs.python.org/2.2/lib/weakref-example.html
p877
aVhttps://docs.python.org/2.2/lib/node128.html
p878
aVhttps://docs.python.org/2/library/smtpd.html
p879
aVhttps://docs.python.org/2/library/email.header.html
p880
aVhttps://docs.python.org/2/library/__main__.html
p881
aVhttps://docs.python.org/2.2/lib/module-gc.html
p882
aVhttps://docs.python.org/2.2/lib/module-unittest.html
p883
aVhttps://docs.python.org/2.2/api/advanced-debugging.html
p884
aVhttps://docs.python.org/2.2/lib/bltin-file-objects.html
p885
aVhttps://docs.python.org/2.2/lib/module-TERMIOSuppercase.html
p886
aVhttps://docs.python.org/2.2/lib/node509.html
p887
aVhttps://docs.python.org/2/library/xml.sax.reader.html
p888
aVhttps://docs.python.org/2/library/errno.html
p889
aVhttps://docs.python.org/2/library/numeric.html
p890
aVhttps://docs.python.org/2/howto/sorting.html
p891
aVhttps://docs.python.org/2.2/ext/win-dlls.html
p892
aVhttps://docs.python.org/2.2/lib/module-resource.html
p893
aVhttps://docs.python.org/2.2/lib/writer-impls.html
p894
aVhttps://docs.python.org/2.2/ext/high-level-embedding.html
p895
aVhttps://docs.python.org/2/c-api/file.html
p896
aVhttps://docs.python.org/2/library/sun.html
p897
aVhttps://docs.python.org/2/library/keyword.html
p898
aVhttps://docs.python.org/2.2/lib/module-compiler.visitor.html
p899
aVhttps://docs.python.org/2/extending/embedding.html
p900
aVhttps://docs.python.org/2/library/language.html
p901
aVhttps://docs.python.org/2.2/lib/node531.html
p902
aVhttps://docs.python.org/2/extending/extending.html
p903
aVhttps://docs.python.org/2.2/ref/expression-input.html
p904
aVhttps://docs.python.org/2.2/lib/node623.html
p905
aVhttps://docs.python.org/2.2/ext/defining-new-types.html
p906
aVhttps://docs.python.org/2/library/os.html
p907
aVhttps://docs.python.org/2.2/lib/node387.html
p908
aVhttps://docs.python.org/2/library/ipc.html
p909
aVhttps://docs.python.org/2.2/mac/module-Carbon.Evt.html
p910
aVhttps://docs.python.org/2.2/api/weakref-objects.html
p911
aVhttps://docs.python.org/2.2/lib/pickle-protocol.html
p912
aVhttps://docs.python.org/2/tutorial/introduction.html
p913
aVhttps://docs.python.org/2.2/lib/unittest-error-info.html
p914
aVhttps://docs.python.org/2.2/ref/keywords.html
p915
aVhttps://docs.python.org/2.2/lib/matching-searching.html
p916
aVhttps://docs.python.org/2.2/mac/node97.html
p917
aVhttps://docs.python.org/2.2/mac/progressbar-objects.html
p918
aVhttps://docs.python.org/2.2/lib/module-site.html
p919
aVhttps://docs.python.org/2.2/tut/node7.html
p920
aVhttps://docs.python.org/2.2/lib/incremental-parser-objects.html
p921
aVhttps://docs.python.org/2.2/lib/module-UserDict.html
p922
aVhttps://docs.python.org/2.2/lib/stream-reader-writer.html
p923
aVhttps://docs.python.org/2.2/ext/dnt-basics.html
p924
aVhttps://docs.python.org/2/faq/programming.html
p925
aVhttps://docs.python.org/2.2/ext/extending-with-embedding.html
p926
aVhttps://docs.python.org/2/c-api/slice.html
p927
aVhttps://docs.python.org/2/tutorial/appetite.html
p928
aVhttps://docs.python.org/2.2/lib/node515.html
p929
aVhttps://docs.python.org/2.2/lib/module-sunaudiodev.html
p930
aVhttps://docs.python.org/2/library/crypto.html
p931
aVhttps://docs.python.org/2.2/doc/info-units.html
p932
aVhttps://docs.python.org/2.2/ext/embedding.html
p933
aVhttps://docs.python.org/2.2/ref/indentation.html
p934
aVhttps://docs.python.org/2.2/api/intObjects.html
p935
aVhttps://docs.python.org/2.2/ext/intro.html
p936
aVhttps://docs.python.org/2.2/lib/module-cgitb.html
p937
aVhttps://docs.python.org/2.2/tut/node16.html
p938
aVhttps://docs.python.org/2.2/lib/intro.html
p939
aVhttps://docs.python.org/2.2/ref/lambdas.html
p940
aVhttps://docs.python.org/2/download.html
p941
aVhttps://docs.python.org/2.2/lib/sequencematcher-examples.html
p942
aVhttps://docs.python.org/2.2/mac/module-mac.html
p943
aVhttps://docs.python.org/2.2/lib/xmlrpc-client-example.html
p944
aVhttps://docs.python.org/2.2/lib/msvcrt-files.html
p945
aVhttps://docs.python.org/2.2/lib/dircmp-objects.html
p946
aVhttps://docs.python.org/2/library/abc.html
p947
aVhttps://docs.python.org/2.2/ref/shifting.html
p948
aVhttps://docs.python.org/2.2/lib/module-pydoc.html
p949
aVhttps://docs.python.org/2/library/subprocess.html
p950
aVhttps://docs.python.org/2/using/index.html
p951
aVhttps://docs.python.org/2.2/whatsnew/node13.html
p952
aVhttps://docs.python.org/2.2/lib/htmlparser-example.html
p953
aVhttps://docs.python.org/2.2/ref/node104.html
p954
aVhttps://docs.python.org/2.2/tut/node14.html
p955
aVhttps://docs.python.org/2/library/imp.html
p956
aVhttps://docs.python.org/2.2/lib/module-zipfile.html
p957
aVhttps://docs.python.org/2.2/ext/buildValue.html
p958
aVhttps://docs.python.org/2.2/lib/module-wave.html
p959
aVhttps://docs.python.org/2.2/ref/comparisons.html
p960
aVhttps://docs.python.org/2.2/lib/socket-objects.html
p961
aVhttps://docs.python.org/2/library/mac.html
p962
aVhttps://docs.python.org/2.2/modindex.html
p963
aVhttps://docs.python.org/2.2/lib/module-UserList.html
p964
aVhttps://docs.python.org/2.2/lib/crypto.html
p965
aVhttps://docs.python.org/2.2/lib/node208.html
p966
aVhttps://docs.python.org/2/library/dummy_thread.html
p967
aVhttps://docs.python.org/2.2/lib/truth.html
p968
aVhttps://docs.python.org/2/library/nntplib.html
p969
aVhttps://docs.python.org/2.2/lib/xdr-packer-objects.html
p970
aVhttps://docs.python.org/2/library/mhlib.html
p971
aVhttps://docs.python.org/2/library/cookielib.html
p972
aVhttps://docs.python.org/2.2/mac/module-pyresource.html
p973
aVhttps://docs.python.org/2.2/doc/indexing.html
p974
aVhttps://docs.python.org/2.2/mac/contents.html
p975
aVhttps://docs.python.org/2.2/ref/simple.html
p976
aVhttps://docs.python.org/2.2/lib/module-posixfile.html
p977
aVhttps://docs.python.org/2.2/doc/inline-markup.html
p978
aVhttps://docs.python.org/2.2/lib/module-pwd.html
p979
aVhttps://docs.python.org/2.2/lib/node127.html
p980
aVhttps://docs.python.org/2/library/optparse.html
p981
aVhttps://docs.python.org/2.2/lib/module-email.Parser.html
p982
aVhttps://docs.python.org/2/c-api/tuple.html
p983
aVhttps://docs.python.org/2/library/imaplib.html
p984
aVhttps://docs.python.org/2.2/lib/module-SocketServer.html
p985
aVhttps://docs.python.org/2/library/profile.html
p986
aVhttps://docs.python.org/2.2/lib/pickle-inst.html
p987
aVhttps://docs.python.org/2/c-api/function.html
p988
aVhttps://docs.python.org/2/c-api/buffer.html
p989
aVhttps://docs.python.org/2.2/lib/module-SimpleHTTPServer.html
p990
aVhttps://docs.python.org/2/c-api/arg.html
p991
aVhttps://docs.python.org/2.2/lib/dom-exceptions.html
p992
aVhttps://docs.python.org/2.2/lib/message-objects.html
p993
aVhttps://docs.python.org/2.2/lib/tkinter.html
p994
aVhttps://docs.python.org/2/library/scrolledtext.html
p995
aVhttps://docs.python.org/2.2/tut/node2.html
p996
aVhttps://docs.python.org/2.2/lib/node584.html
p997
aVhttps://docs.python.org/2.2/lib/node630.html
p998
aVhttps://docs.python.org/2.2/lib/module-cmd.html
p999
aVhttps://docs.python.org/2.2/lib/curses-window-objects.html
p1000
aVhttps://docs.python.org/2.2/lib/sax-error-handler.html
p1001
aVhttps://docs.python.org/2.2/lib/expat-content-models.html
p1002
aVhttps://docs.python.org/2/library/pwd.html
p1003
aVhttps://docs.python.org/2.2/lib/module-dumbdbm.html
p1004
aVhttps://docs.python.org/2.2/lib/binary-objects.html
p1005
aVhttps://docs.python.org/2.2/lib/cd-parser-objects.html
p1006
aVhttps://docs.python.org/2.2/lib/node297.html
p1007
aVhttps://docs.python.org/2/library/xml.dom.minidom.html
p1008
aVhttps://docs.python.org/2.2/doc/tools-external.html
p1009
aVhttps://docs.python.org/2.2/lib/module-rotor.html
p1010
aVhttps://docs.python.org/2.2/lib/module-difflib.html
p1011
aVhttps://docs.python.org/2.2/ref/datamodel.html
p1012
aVhttps://docs.python.org/2/library/gzip.html
p1013
aVhttps://docs.python.org/2.2/ref/compound.html
p1014
aVhttps://docs.python.org/2.2/lib/module-warnings.html
p1015
aVhttps://docs.python.org/2.2/ref/import.html
p1016
aVhttps://docs.python.org/2.2/lib/module-sunau.html
p1017
aVhttps://docs.python.org/2/library/code.html
p1018
aVhttps://docs.python.org/2/library/datatypes.html
p1019
aVhttps://docs.python.org/2.2/lib/semaphore-examples.html
p1020
aVhttps://docs.python.org/2/library/pipes.html
p1021
aVhttps://docs.python.org/2.2/mac/module-macresource.html
p1022
aVhttps://docs.python.org/2.2/lib/au-read-objects.html
p1023
aVhttps://docs.python.org/2.2/lib/module-dbm.html
p1024
aVhttps://docs.python.org/2.2/mac/using.html
p1025
aVhttps://docs.python.org/2/library/logging.html
p1026
aVhttps://docs.python.org/2.2/lib/module-ConfigParser.html
p1027
aVhttps://docs.python.org/2.2/ref/atoms.html
p1028
aVhttps://docs.python.org/2.2/mac/node96.html
p1029
aVhttps://docs.python.org/2.2/lib/module-audioop.html
p1030
aVhttps://docs.python.org/2.2/lib/module-rfc822.html
p1031
aVhttps://docs.python.org/2.2/dist/setup-config.html
p1032
aVhttps://docs.python.org/2.2/lib/module-shlex.html
p1033
aVhttps://docs.python.org/2.2/lib/bsddb-objects.html
p1034
aVhttps://docs.python.org/2.2/lib/module-atexit.html
p1035
aVhttps://docs.python.org/2/library/httplib.html
p1036
aVhttps://docs.python.org/2.2/lib/Repr-objects.html
p1037
aVhttps://docs.python.org/2.2/lib/module-dis.html
p1038
aVhttps://docs.python.org/2.2/lib/module-signal.html
p1039
aVhttps://docs.python.org/2.2/ref/assignment.html
p1040
aVhttps://docs.python.org/2/library/email.errors.html
p1041
aVhttps://docs.python.org/2.2/mac/voice-objects.html
p1042
aVhttps://docs.python.org/2.2/lib/module-re.html
p1043
aVhttps://docs.python.org/2.2/lib/SMTP-example.html
p1044
aVhttps://docs.python.org/2.2/lib/node291.html
p1045
aVhttps://docs.python.org/2.2/lib/thread-objects.html
p1046
aVhttps://docs.python.org/2.2/doc/directories.html
p1047
aVhttps://docs.python.org/2.2/lib/QueueObjects.html
p1048
aVhttps://docs.python.org/2/library/sunaudio.html
p1049
aVhttps://docs.python.org/2.2/doc/classes.html
p1050
aVhttps://docs.python.org/2/library/undoc.html
p1051
aVhttps://docs.python.org/2.2/lib/base-handler-objects.html
p1052
aVhttps://docs.python.org/2.2/ref/specialnames.html
p1053
aVhttps://docs.python.org/2.2/lib/dl-objects.html
p1054
aVhttps://docs.python.org/2.2/lib/html-parser-objects.html
p1055
aVhttps://docs.python.org/2.2/lib/inspect-classes-functions.html
p1056
aVhttps://docs.python.org/2.2/lib/module-getpass.html
p1057
aVhttps://docs.python.org/2/library/syslog.html
p1058
aVhttps://docs.python.org/2.2/lib/dom-documenttype-objects.html
p1059
aVhttps://docs.python.org/2/genindex-Symbols.html
p1060
aVhttps://docs.python.org/2.2/api/api.html
p1061
aVhttps://docs.python.org/2/library/simplexmlrpcserver.html
p1062
aVhttps://docs.python.org/2.2/api/initialization.html
p1063
aVhttps://docs.python.org/2.2/lib/module-binhex.html
p1064
aVhttps://docs.python.org/2.2/lib/markup.html
p1065
aVhttps://docs.python.org/2.2/ext/pure-embedding.html
p1066
aVhttps://docs.python.org/2.2/lib/module-mailbox.html
p1067
aVhttps://docs.python.org/2.2/doc/references.html
p1068
aVhttps://docs.python.org/2.2/lib/module-bsddb.html
p1069
aVhttps://docs.python.org/2/howto/descriptor.html
p1070
aVhttps://docs.python.org/2.2/mac/module-videoreader.html
p1071
aVhttps://docs.python.org/2.2/ref/naming.html
p1072
aVhttps://docs.python.org/2/library/csv.html
p1073
aVhttps://docs.python.org/2.2/tut/node3.html
p1074
aVhttps://docs.python.org/2.2/lib/module-xml.dom.pulldom.html
p1075
aVhttps://docs.python.org/2/library/xml.html
p1076
aVhttps://docs.python.org/2/library/2to3.html
p1077
aVhttps://docs.python.org/2.2/ref/dynamic-features.html
p1078
aVhttps://docs.python.org/2.2/lib/node540.html
p1079
aVhttps://docs.python.org/2/whatsnew/index.html
p1080
aVhttps://docs.python.org/2/library/compileall.html
p1081
aVhttps://docs.python.org/2.2/lib/dom-node-objects.html
p1082
aVhttps://docs.python.org/2.2/lib/os-process.html
p1083
aVhttps://docs.python.org/2.2/ref/introduction.html
p1084
aVhttps://docs.python.org/2.2/lib/module-inspect.html
p1085
aVhttps://docs.python.org/2.2/lib/module-cgi.html
p1086
aVhttps://docs.python.org/2.2/lib/pop3-objects.html
p1087
aVhttps://docs.python.org/2/library/turtle.html
p1088
aVhttps://docs.python.org/2.2/lib/node544.html
p1089
aVhttps://docs.python.org/2.2/lib/warning-functions.html
p1090
aVhttps://docs.python.org/2.2/lib/dtd-handler-objects.html
p1091
aVhttps://docs.python.org/2/library/gc.html
p1092
aVhttps://docs.python.org/2.2/lib/module-exceptions.html
p1093
aVhttps://docs.python.org/2.2/mac/fsspec-objects.html
p1094
aVhttps://docs.python.org/2.2/ext/using-cobjects.html
p1095
aVhttps://docs.python.org/2.2/doc/library-markup.html
p1096
aVhttps://docs.python.org/2.2/mac/module-Carbon.Fm.html
p1097
aVhttps://docs.python.org/2.2/ref/sequence-types.html
p1098
aVhttps://docs.python.org/2.2/lib/proxy-basic-auth-handler.html
p1099
aVhttps://docs.python.org/2.2/lib/warning-filter.html
p1100
aVhttps://docs.python.org/2.2/mac/module-MiniAEFrame.html
p1101
aVhttps://docs.python.org/2.2/api/mapping-structs.html
p1102
aVhttps://docs.python.org/2.2/lib/module-threading.html
p1103
aVhttps://docs.python.org/2.2/whatsnew/whatsnew22.html
p1104
aVhttps://docs.python.org/2.2/lib/compiler.html
p1105
aVhttps://docs.python.org/2.2/ext/refcounts.html
p1106
aVhttps://docs.python.org/2.2/whatsnew/node4.html
p1107
aVhttps://docs.python.org/2.2/lib/module-random.html
p1108
aVhttps://docs.python.org/2/reference/introduction.html
p1109
aVhttps://docs.python.org/2.2/lib/module-xml.parsers.expat.html
p1110
aVhttps://docs.python.org/2/library/modules.html
p1111
aVhttps://docs.python.org/2/c-api/long.html
p1112
aVhttps://docs.python.org/2.2/lib/module-mpz.html
p1113
aVhttps://docs.python.org/2.2/lib/node629.html
p1114
aVhttps://docs.python.org/2/c-api/bytearray.html
p1115
aVhttps://docs.python.org/2/c-api/type.html
p1116
aVhttps://docs.python.org/2/library/modulefinder.html
p1117
aVhttps://docs.python.org/2/faq/installed.html
p1118
aVhttps://docs.python.org/2.2/mac/search-path.html
p1119
aVhttps://docs.python.org/2.2/lib/module-main.html
p1120
aVhttps://docs.python.org/2/library/difflib.html
p1121
aVhttps://docs.python.org/2.2/lib/mmedia.html
p1122
aVhttps://docs.python.org/2.2/lib/cgi-security.html
p1123
aVhttps://docs.python.org/2.2/api/profiling.html
p1124
aVhttps://docs.python.org/2.2/lib/curses-functions.html
p1125
aVhttps://docs.python.org/2.2/tut/node6.html
p1126
aVhttps://docs.python.org/2.2/lib/morsel-objects.html
p1127
aVhttps://docs.python.org/2.2/api/moduleObjects.html
p1128
aVhttps://docs.python.org/2/installing/index.html
p1129
aVhttps://docs.python.org/2.2/lib/player-objects.html
p1130
aVhttps://docs.python.org/2/howto/regex.html
p1131
aVhttps://docs.python.org/2.2/ext/lower-level-embedding.html
p1132
aVhttps://docs.python.org/2/library/pty.html
p1133
aVhttps://docs.python.org/2.2/api/front.html
p1134
aVhttps://docs.python.org/2.2/lib/module-curses.wrapper.html
p1135
aVhttps://docs.python.org/2.2/lib/module-fl-constants.html
p1136
aVhttps://docs.python.org/2.2/lib/node527.html
p1137
aVhttps://docs.python.org/2/library/basehttpserver.html
p1138
aVhttps://docs.python.org/2.2/api/number.html
p1139
aVhttps://docs.python.org/2/library/formatter.html
p1140
aVhttps://docs.python.org/2.2/lib/minidom-and-dom.html
p1141
aVhttps://docs.python.org/2.2/lib/dom-implementation-objects.html
p1142
aVhttps://docs.python.org/2.2/lib/module-xml.sax.saxutils.html
p1143
aVhttps://docs.python.org/2.2/lib/module-email.Message.html
p1144
aVhttps://docs.python.org/2/library/os.path.html
p1145
aVhttps://docs.python.org/2.2/ref/sequence-methods.html
p1146
aVhttps://docs.python.org/2/tutorial/index.html
p1147
aVhttps://docs.python.org/2/tutorial/stdlib2.html
p1148
aVhttps://docs.python.org/2.2/lib/module-mimetypes.html
p1149
aVhttps://docs.python.org/2.2/dist/module-distutils.sysconfig.html
p1150
aVhttps://docs.python.org/2.2/mac/configuration.html
p1151
aVhttps://docs.python.org/2.2/dist/source-dist.html
p1152
aVhttps://docs.python.org/2.2/lib/module-mimetools.html
p1153
aVhttps://docs.python.org/2.2/lib/dom-pi-objects.html
p1154
aVhttps://docs.python.org/2.2/lib/typesnumeric.html
p1155
aVhttps://docs.python.org/2.2/lib/node113.html
p1156
aVhttps://docs.python.org/2/library/gdbm.html
p1157
aVhttps://docs.python.org/2/library/mmap.html
p1158
aVhttps://docs.python.org/2.2/lib/cgi-intro.html
p1159
aVhttps://docs.python.org/2/tutorial/appendix.html
p1160
aVhttps://docs.python.org/2/c-api/unicode.html
p1161
aVhttps://docs.python.org/2.2/api/dictObjects.html
p1162
aVhttps://docs.python.org/2.2/dist/dist.html
p1163
aVhttps://docs.python.org/2.2/ref/genindex.html
p1164
aVhttps://docs.python.org/2.2/ref/if.html
p1165
aVhttps://docs.python.org/2.2/ref/exceptions.html
p1166
aVhttps://docs.python.org/2.2/mac/IDEapplet.html
p1167
aVhttps://docs.python.org/2.2/lib/dom-conformance.html
p1168
aVhttps://docs.python.org/2.2/lib/node207.html
p1169
aVhttps://docs.python.org/2.2/lib/imap4-example.html
p1170
aVhttps://docs.python.org/2.2/ref/nested-scopes.html
p1171
aVhttps://docs.python.org/2.2/ref/strings.html
p1172
aVhttps://docs.python.org/2.2/lib/sax-exception-objects.html
p1173
aVhttps://docs.python.org/2/library/aepack.html
p1174
aVhttps://docs.python.org/2.2/tut/node13.html
p1175
aVhttps://docs.python.org/2.2/mac/module-ctb.html
p1176
aVhttps://docs.python.org/2.2/lib/module-whrandom.html
p1177
aVhttps://docs.python.org/2.2/ref/explicit-joining.html
p1178
aVhttps://docs.python.org/2.2/mac/scrolledwindow-object.html
p1179
aVhttps://docs.python.org/2.2/lib/codec-objects.html
p1180
aVhttps://docs.python.org/2.2/api/longObjects.html
p1181
aVhttps://docs.python.org/2.2/lib/module-netrc.html
p1182
aVhttps://docs.python.org/2.2/lib/node522.html
p1183
aVhttps://docs.python.org/2.2/lib/bltin-null-object.html
p1184
aVhttps://docs.python.org/2.2/lib/module-al.html
p1185
aVhttps://docs.python.org/2.2/lib/console-objects.html
p1186
aVhttps://docs.python.org/2.2/tut/node9.html
p1187
aVhttps://docs.python.org/2.2/lib/formatter-impls.html
p1188
aVhttps://docs.python.org/2.2/lib/module-UserString.html
p1189
aVhttps://docs.python.org/2.2/lib/pickle-example.html
p1190
aVhttps://docs.python.org/2/library/locale.html
p1191
aVhttps://docs.python.org/2.2/lib/module-crypt.html
p1192
aVhttps://docs.python.org/2.2/lib/interpreter-objects.html
p1193
aVhttps://docs.python.org/2.2/lib/module-builtin.html
p1194
aVhttps://docs.python.org/2/library/miniaeframe.html
p1195
aVhttps://docs.python.org/2/library/bisect.html
p1196
aVhttps://docs.python.org/2.2/mac/module-quietconsole.html
p1197
aVhttps://docs.python.org/2/library/pdb.html
p1198
aVhttps://docs.python.org/2.2/mac/module-Carbon.TE.html
p1199
aVhttps://docs.python.org/2.2/lib/forms-objects.html
p1200
aVhttps://docs.python.org/2.2/lib/node130.html
p1201
aVhttps://docs.python.org/2/library/fnmatch.html
p1202
aVhttps://docs.python.org/2.2/lib/xml-namespace.html
p1203
aVhttps://docs.python.org/2/library/audioop.html
p1204
aVhttps://docs.python.org/2.2/api/reporting-bugs.html
p1205
aVhttps://docs.python.org/2/library/mimetools.html
p1206
aVhttps://docs.python.org/2.2/ref/Booleans.html
p1207
aVhttps://docs.python.org/2.2/lib/node41.html
p1208
aVhttps://docs.python.org/2/library/codecs.html
p1209
aVhttps://docs.python.org/2.2/lib/node183.html
p1210
aVhttps://docs.python.org/2.2/mac/speech-channel-objects.html
p1211
aVhttps://docs.python.org/2.2/ref/literals.html
p1212
aVhttps://docs.python.org/2.2/api/tupleObjects.html
p1213
aVhttps://docs.python.org/2/genindex-J.html
p1214
aVhttps://docs.python.org/2/library/popen2.html
p1215
aVhttps://docs.python.org/2.2/ref/for.html
p1216
aVhttps://docs.python.org/2/library/hmac.html
p1217
aVhttps://docs.python.org/2/c-api/veryhigh.html
p1218
aVhttps://docs.python.org/2.2/lib/node99.html
p1219
aVhttps://docs.python.org/2/c-api/list.html
p1220
aVhttps://docs.python.org/2.2/lib/semaphore-objects.html
p1221
aVhttps://docs.python.org/2/library/readline.html
p1222
aVhttps://docs.python.org/2.2/mac/EditPythonPrefs.html
p1223
aVhttps://docs.python.org/2.2/lib/cacheftp-handler-objects.html
p1224
aVhttps://docs.python.org/2/genindex-N.html
p1225
aVhttps://docs.python.org/2/c-api/concrete.html
p1226
aVhttps://docs.python.org/2/library/signal.html
p1227
aVhttps://docs.python.org/2/glossary.html
p1228
aVhttps://docs.python.org/2/library/telnetlib.html
p1229
aVhttps://docs.python.org/2/faq/extending.html
p1230
aVhttps://docs.python.org/2.2/lib/node555.html
p1231
aVhttps://docs.python.org/2.2/lib/node303.html
p1232
aVhttps://docs.python.org/2.2/lib/module-BaseHTTPServer.html
p1233
aVhttps://docs.python.org/2.2/lib/posix-large-files.html
p1234
aVhttps://docs.python.org/2.2/lib/abstract-digest-auth-handler.html
p1235
aVhttps://docs.python.org/2.2/lib/module-termios.html
p1236
aVhttps://docs.python.org/2/library/cmath.html
p1237
aVhttps://docs.python.org/2/c-api/code.html
p1238
aVhttps://docs.python.org/2.2/dist/sdist-cmd.html
p1239
aVhttps://docs.python.org/2.2/tut/node8.html
p1240
aVhttps://docs.python.org/2.2/lib/http-password-mgr.html
p1241
aVhttps://docs.python.org/2.2/ref/node103.html
p1242
aVhttps://docs.python.org/2/library/constants.html
p1243
aVhttps://docs.python.org/2/library/email.html
p1244
aVhttps://docs.python.org/2/library/io.html
p1245
aVhttps://docs.python.org/2.2/lib/tkinter-setting-options.html
p1246
aVhttps://docs.python.org/2.2/ref/calls.html
p1247
aVhttps://docs.python.org/2.2/ext/node28.html
p1248
aVhttps://docs.python.org/2.2/whatsnew/about.html
p1249
aVhttps://docs.python.org/2/about.html
p1250
aVhttps://docs.python.org/2.2/lib/re-objects.html
p1251
aVhttps://docs.python.org/2/library/xml.dom.pulldom.html
p1252
aVhttps://docs.python.org/2.2/ext/node44.html
p1253
aVhttps://docs.python.org/2.2/api/mapping.html
p1254
aVhttps://docs.python.org/2/library/itertools.html
p1255
aVhttps://docs.python.org/2/c-api/object.html
p1256
aVhttps://docs.python.org/2.2/lib/node286.html
p1257
aVhttps://docs.python.org/2.2/ext/node26.html
p1258
aVhttps://docs.python.org/2.2/mac/module-aepack.html
p1259
aVhttps://docs.python.org/2.2/ref/slicings.html
p1260
aVhttps://docs.python.org/2.2/lib/telnet-objects.html
p1261
aVhttps://docs.python.org/2.2/lib/boolean-objects.html
p1262
aVhttps://docs.python.org/2.2/tut/node12.html
p1263
aVhttps://docs.python.org/2.2/mac/module-EasyDialogs.html
p1264
aVhttps://docs.python.org/2.2/lib/classes/ClassPacker.html
p1265
aVhttps://docs.python.org/2/library/imghdr.html
p1266
aVhttps://docs.python.org/2.2/lib/module-xml.sax.html
p1267
aVhttps://docs.python.org/2.2/lib/dom-document-objects.html
p1268
aVhttps://docs.python.org/2.2/lib/node274.html
p1269
aVhttps://docs.python.org/2.2/mac/module-Carbon.Mlte.html
p1270
aVhttps://docs.python.org/2.2/lib/subclassing-reprs.html
p1271
aVhttps://docs.python.org/2/library/py_compile.html
p1272
aVhttps://docs.python.org/2.2/ref/conversions.html
p1273
aVhttps://docs.python.org/2/library/mimetypes.html
p1274
aVhttps://docs.python.org/2/genindex-G.html
p1275
aVhttps://docs.python.org/2.2/lib/xmlparser-objects.html
p1276
aVhttps://docs.python.org/2.2/tut/node1.html
p1277
aVhttps://docs.python.org/2.2/lib/protocol-error-objects.html
p1278
aVhttps://docs.python.org/2.2/doc/discussion.html
p1279
aVhttps://docs.python.org/2/library/bastion.html
p1280
aVhttps://docs.python.org/2.2/ref/dict.html
p1281
aVhttps://docs.python.org/2/library/nis.html
p1282
aVhttps://docs.python.org/2.2/lib/nntp-objects.html
p1283
aVhttps://docs.python.org/2.2/mac/defaults.html
p1284
aVhttps://docs.python.org/2/library/curses.html
p1285
aVhttps://docs.python.org/2/library/debug.html
p1286
aVhttps://docs.python.org/2.2/api/embedding.html
p1287
aVhttps://docs.python.org/2/c-api/int.html
p1288
aVhttps://docs.python.org/2.2/ref/implicit-joining.html
p1289
aVhttps://docs.python.org/2.2/lib/fault-objects.html
p1290
aVhttps://docs.python.org/2/library/getopt.html
p1291
aVhttps://docs.python.org/2.2/lib/handle-object.html
p1292
aVhttps://docs.python.org/2.2/lib/module-types.html
p1293
aVhttps://docs.python.org/2/library/cookie.html
p1294
aVhttps://docs.python.org/2.2/whatsnew/node5.html
p1295
aVhttps://docs.python.org/2/c-api/reflection.html
p1296
aVhttps://docs.python.org/2/library/rexec.html
p1297
aVhttps://docs.python.org/2.2/lib/node284.html
p1298
aVhttps://docs.python.org/2.2/lib/module-smtplib.html
p1299
aVhttps://docs.python.org/2.2/lib/module-pty.html
p1300
aVhttps://docs.python.org/2.2/ext/building-on-windows.html
p1301
aVhttps://docs.python.org/2.2/lib/node397.html
p1302
aVhttps://docs.python.org/2.2/lib/module-HTMLParser.html
p1303
aVhttps://docs.python.org/2/library/grp.html
p1304
aVhttps://docs.python.org/2/library/binascii.html
p1305
aVhttps://docs.python.org/2/library/simplehttpserver.html
p1306
aVhttps://docs.python.org/2/library/argparse.html
p1307
aVhttps://docs.python.org/2.2/lib/weakref-extension.html
p1308
aVhttps://docs.python.org/2.2/api/os.html
p1309
aVhttps://docs.python.org/2.2/lib/node561.html
p1310
aVhttps://docs.python.org/2.2/ref/integers.html
p1311
aVhttps://docs.python.org/2.2/lib/urllib2-examples.html
p1312
aVhttps://docs.python.org/2.2/lib/popen3-objects.html
p1313
aVhttps://docs.python.org/2/whatsnew/2.1.html
p1314
aVhttps://docs.python.org/2.2/lib/module-email.Charset.html
p1315
aVhttps://docs.python.org/2.2/lib/node530.html
p1316
aVhttps://docs.python.org/2/library/pydoc.html
p1317
aVhttps://docs.python.org/2.2/lib/module-rlcompleter.html
p1318
aVhttps://docs.python.org/2/faq/library.html
p1319
aVhttps://docs.python.org/2.2/lib/module-compileall.html
p1320
aVhttps://docs.python.org/2/c-api/iterator.html
p1321
aVhttps://docs.python.org/2.2/lib/module-imageop.html
p1322
aVhttps://docs.python.org/2.2/lib/sgi.html
p1323
aVhttps://docs.python.org/2.2/lib/module-copy.html
p1324
aVhttps://docs.python.org/2.2/mac/scripting-with-BBedit.html
p1325
aVhttps://docs.python.org/2.2/lib/node526.html
p1326
aVhttps://docs.python.org/2/library/jpeg.html
p1327
aVhttps://docs.python.org/2.2/mac/module-Carbon.Qd.html
p1328
aVhttps://docs.python.org/2/library/uu.html
p1329
aVhttps://docs.python.org/2.2/api/node39.html
p1330
aVhttps://docs.python.org/2.2/lib/pyzipfile-objects.html
p1331
aVhttps://docs.python.org/2.2/lib/language.html
p1332
aVhttps://docs.python.org/2.2/whatsnew/node7.html
p1333
aVhttps://docs.python.org/2.2/lib/module-locale.html
p1334
aVhttps://docs.python.org/2.2/lib/module-email.Utils.html
p1335
aVhttps://docs.python.org/2.2/lib/node125.html
p1336
aVhttps://docs.python.org/2/c-api/class.html
p1337
aVhttps://docs.python.org/2/library/winsound.html
p1338
aVhttps://docs.python.org/2.2/lib/inspect-stack.html
p1339
aVhttps://docs.python.org/2.2/mac/module-buildtools.html
p1340
aVhttps://docs.python.org/2.2/about.html
p1341
aVhttps://docs.python.org/2/library/shelve.html
p1342
aVhttps://docs.python.org/2.2/ref/front.html
p1343
aVhttps://docs.python.org/2/reference/index.html
p1344
aVhttps://docs.python.org/2.2/inst/config-syntax.html
p1345
aVhttps://docs.python.org/2/library/platform.html
p1346
aVhttps://docs.python.org/2.2/api/fundamental.html
p1347
aVhttps://docs.python.org/2.2/lib/poll-objects.html
p1348
aVhttps://docs.python.org/2.2/api/cell-objects.html
p1349
aVhttps://docs.python.org/2/genindex-V.html
p1350
aVhttps://docs.python.org/2.2/lib/module-CGIHTTPServer.html
p1351
aVhttps://docs.python.org/2/library/socketserver.html
p1352
aVhttps://docs.python.org/2/library/colorsys.html
p1353
aVhttps://docs.python.org/2/library/symbol.html
p1354
aVhttps://docs.python.org/2.2/ref/expressions.html
p1355
aVhttps://docs.python.org/2.2/lib/module-urllib2.html
p1356
aVhttps://docs.python.org/2/c-api/datetime.html
p1357
aVhttps://docs.python.org/2/library/cmd.html
p1358
aVhttps://docs.python.org/2.2/lib/Wave-read-objects.html
p1359
aVhttps://docs.python.org/2.2/lib/node533.html
p1360
aVhttps://docs.python.org/2.2/api/unicodeObjects.html
p1361
aVhttps://docs.python.org/2.2/lib/node543.html
p1362
aVhttps://docs.python.org/2.2/mac/node11.html
p1363
aVhttps://docs.python.org/2.2/ext/ext.html
p1364
aVhttps://docs.python.org/2.2/lib/os-procinfo.html
p1365
aVhttps://docs.python.org/2.2/lib/inspect-types.html
p1366
aVhttps://docs.python.org/2/library/pickle.html
p1367
aVhttps://docs.python.org/2.2/ref/coercion-rules.html
p1368
aVhttps://docs.python.org/2.2/api/memoryInterface.html
p1369
aVhttps://docs.python.org/2.2/lib/attributes-ns-objects.html
p1370
aVhttps://docs.python.org/2/library/stringprep.html
p1371
aVhttps://docs.python.org/2/library/filesys.html
p1372
aVhttps://docs.python.org/2.2/api/abstract.html
p1373
aVhttps://docs.python.org/2.2/lib/module-fpectl.html
p1374
aVhttps://docs.python.org/2.2/lib/curses-panel-objects.html
p1375
aVhttps://docs.python.org/2/library/timeit.html
p1376
aVhttps://docs.python.org/2.2/lib/module-rexec.html
p1377
aVhttps://docs.python.org/2/library/collections.html
p1378
aVhttps://docs.python.org/2.2/doc/gui-markup.html
p1379
aVhttps://docs.python.org/2.2/lib/differ-objects.html
p1380
aVhttps://docs.python.org/2.2/ext/node27.html
p1381
aVhttps://docs.python.org/2.2/lib/module-nis.html
p1382
aVhttps://docs.python.org/2.2/ref/primaries.html
p1383
aVhttps://docs.python.org/2.2/ext/node43.html
p1384
aVhttps://docs.python.org/2/faq/index.html
p1385
aVhttps://docs.python.org/2.2/lib/unittest-contents.html
p1386
aVhttps://docs.python.org/2/library/md5.html
p1387
aVhttps://docs.python.org/2/library/asynchat.html
p1388
aVhttps://docs.python.org/2.2/lib/module-xdrlib.html
p1389
aVhttps://docs.python.org/2/genindex-E.html
p1390
aVhttps://docs.python.org/2.2/mac/about.html
p1391
aVhttps://docs.python.org/2/library/email.iterators.html
p1392
aVhttps://docs.python.org/2/library/sgmllib.html
p1393
aVhttps://docs.python.org/2.2/whatsnew/node12.html
p1394
aVhttps://docs.python.org/2/tutorial/stdlib.html
p1395
aVhttps://docs.python.org/2/tutorial/whatnow.html
p1396
aVhttps://docs.python.org/2.2/ref/attribute-references.html
p1397
aVhttps://docs.python.org/2/library/heapq.html
p1398
aVhttps://docs.python.org/2/using/windows.html
p1399
aVhttps://docs.python.org/2.2/lib/module-codecs.html
p1400
aVhttps://docs.python.org/2/distutils/setupscript.html
p1401
aVhttps://docs.python.org/2/library/ftplib.html
p1402
aVhttps://docs.python.org/2/library/python.html
p1403
aVhttps://docs.python.org/2.2/lib/built-in-funcs.html
p1404
aVhttps://docs.python.org/2.2/lib/typesmapping.html
p1405
aVhttps://docs.python.org/2.2/lib/module-popen2.html
p1406
aVhttps://docs.python.org/2/faq/general.html
p1407
aVhttps://docs.python.org/2.2/lib/module-quopri.html
p1408
aVhttps://docs.python.org/2.2/mac/creator-code.html
p1409
aVhttps://docs.python.org/2.2/mac/node15.html
p1410
aVhttps://docs.python.org/2.2/mac/module-waste.html
p1411
aVhttps://docs.python.org/2.2/lib/profile-limits.html
p1412
aVhttps://docs.python.org/2.2/ref/futures.html
p1413
aVhttps://docs.python.org/2/genindex-Y.html
p1414
aVhttps://docs.python.org/2.2/lib/node548.html
p1415
aVhttps://docs.python.org/2/genindex-R.html
p1416
aVhttps://docs.python.org/2/library/select.html
p1417
aVhttps://docs.python.org/2/library/mimify.html
p1418
aVhttps://docs.python.org/2.2/lib/typesmodules.html
p1419
aVhttps://docs.python.org/2.2/lib/netrc-objects.html
p1420
aVhttps://docs.python.org/2/library/fm.html
p1421
aVhttps://docs.python.org/2/howto/urllib2.html
p1422
aVhttps://docs.python.org/2.2/lib/module-repr.html
p1423
aVhttps://docs.python.org/2/c-api/exceptions.html
p1424
aVhttps://docs.python.org/2/howto/unicode.html
p1425
aVhttps://docs.python.org/2.2/lib/stream-writer-objects.html
p1426
aVhttps://docs.python.org/2/c-api/string.html
p1427
aVhttps://docs.python.org/2/howto/doanddont.html
p1428
aVhttps://docs.python.org/2/c-api/memory.html
p1429
aVhttps://docs.python.org/2/library/tk.html
p1430
aVhttps://docs.python.org/2.2/lib/python.html
p1431
aVhttps://docs.python.org/2/library/zipimport.html
p1432
aVhttps://docs.python.org/2.2/mac/module-preferences.html
p1433
aVhttps://docs.python.org/2.2/lib/node514.html
p1434
aVhttps://docs.python.org/2.2/lib/module-gopherlib.html
p1435
aVhttps://docs.python.org/2.2/lib/types.html
p1436
aVhttps://docs.python.org/2/library/pyclbr.html
p1437
aVhttps://docs.python.org/2.2/lib/node581.html
p1438
aVhttps://docs.python.org/2/library/test.html
p1439
aVhttps://docs.python.org/2.2/lib/module-xml.dom.minidom.html
p1440
aVhttps://docs.python.org/2.2/lib/module-profile.html
p1441
aVhttps://docs.python.org/2.2/lib/al-port-objects.html
p1442
aVhttps://docs.python.org/2.2/lib/node445.html
p1443
aVhttps://docs.python.org/2.2/mac/node10.html
p1444
aVhttps://docs.python.org/2.2/ext/dynamic-linking.html
p1445
aVhttps://docs.python.org/2.2/lib/module-traceback.html
p1446
aVhttps://docs.python.org/2/contents.html
p1447
aVhttps://docs.python.org/2.2/lib/module-pycompile.html
p1448
aVhttps://docs.python.org/2/library/macostools.html
p1449
aVhttps://docs.python.org/2.2/api/mapObjects.html
p1450
aVhttps://docs.python.org/2/howto/sockets.html
p1451
aVhttps://docs.python.org/2/library/termios.html
p1452
aVhttps://docs.python.org/2.2/api/abstract-buffer.html
p1453
aVhttps://docs.python.org/2.2/lib/legacy-unit-tests.html
p1454
aVhttps://docs.python.org/2.2/ref/top-level.html
p1455
aVhttps://docs.python.org/2/genindex-Q.html
p1456
aVhttps://docs.python.org/2/library/sysconfig.html
p1457
aVhttps://docs.python.org/2.2/whatsnew/node9.html
p1458
aVhttps://docs.python.org/2/c-api/marshal.html
p1459
aVhttps://docs.python.org/2.2/lib/module-compiler.html
p1460
aVhttps://docs.python.org/2.2/lib/al-config-objects.html
p1461
aVhttps://docs.python.org/2/library/copy.html
p1462
aVhttps://docs.python.org/2/library/array.html
p1463
aVhttps://docs.python.org/2.2/lib/node305.html
p1464
aVhttps://docs.python.org/2.2/lib/mimetools-message-objects.html
p1465
aVhttps://docs.python.org/2.2/lib/mh-message-objects.html
p1466
aVhttps://docs.python.org/2/howto/curses.html
p1467
aVhttps://docs.python.org/2.2/api/importing.html
p1468
aVhttps://docs.python.org/2.2/lib/module-jpeg.html
p1469
aVhttps://docs.python.org/2.2/api/unicodeMethodsAndSlots.html
p1470
aVhttps://docs.python.org/2.2/mac/dialogwindow-objects.html
p1471
aVhttps://docs.python.org/2.2/mac/genindex.html
p1472
aVhttps://docs.python.org/2.2/lib/module-shelve.html
p1473
aVhttps://docs.python.org/2/library/allos.html
p1474
aVhttps://docs.python.org/2.2/lib/pen-rawpen-objects.html
p1475
aVhttps://docs.python.org/2/library/fl.html
p1476
aVhttps://docs.python.org/2/library/persistence.html
p1477
aVhttps://docs.python.org/2.2/lib/node587.html
p1478
aVhttps://docs.python.org/2/library/email.parser.html
p1479
aVhttps://docs.python.org/2/howto/pyporting.html
p1480
aVhttps://docs.python.org/2.2/lib/proxy-digest-auth-handler.html
p1481
aVhttps://docs.python.org/2.2/ref/file-input.html
p1482
aVhttps://docs.python.org/2.2/lib/node368.html
p1483
aVhttps://docs.python.org/2.2/mac/finfo-objects.html
p1484
aVhttps://docs.python.org/2/library/math.html
p1485
aVhttps://docs.python.org/2.2/ref/imaginary.html
p1486
aVhttps://docs.python.org/2.2/ext/module-distutils.html
p1487
aVhttps://docs.python.org/2.2/lib/unix.html
p1488
aVhttps://docs.python.org/2.2/lib/module-marshal.html
p1489
aVhttps://docs.python.org/2/library/tarfile.html
p1490
aVhttps://docs.python.org/2.2/lib/stream-recoder-objects.html
p1491
aVhttps://docs.python.org/2.2/lib/typesobjects.html
p1492
aVhttps://docs.python.org/2/library/htmlparser.html
p1493
aVhttps://docs.python.org/2.2/lib/msvcrt-console.html
p1494
aVhttps://docs.python.org/2.2/mac/module-aetypes.html
p1495
aVhttps://docs.python.org/2.2/lib/module-cd.html
p1496
aVhttps://docs.python.org/2/library/hotshot.html
p1497
aVhttps://docs.python.org/2/distutils/index.html
p1498
aVhttps://docs.python.org/2.2/lib/module-struct.html
p1499
aVhttps://docs.python.org/2.2/lib/node532.html
p1500
aVhttps://docs.python.org/2.2/lib/node582.html
p1501
aVhttps://docs.python.org/2.2/lib/module-string.html
p1502
aVhttps://docs.python.org/2.2/lib/proxy-handler.html
p1503
aVhttps://docs.python.org/2.2/lib/module-bisect.html
p1504
aVhttps://docs.python.org/2.2/lib/module-keyword.html
p1505
aVhttps://docs.python.org/2.2/ext/win-cookbook.html
p1506
aVhttps://docs.python.org/2.2/lib/module-xml.sax.handler.html
p1507
aVhttps://docs.python.org/2.2/lib/node211.html
p1508
aVhttps://docs.python.org/2.2/lib/dom-type-mapping.html
p1509
aVhttps://docs.python.org/2/library/ossaudiodev.html
p1510
aVhttps://docs.python.org/2/howto/index.html
p1511
aVhttps://docs.python.org/2/library/trace.html
p1512
aVhttps://docs.python.org/2.2/whatsnew/node2.html
p1513
aVhttps://docs.python.org/2/library/zipfile.html
p1514
aVhttps://docs.python.org/2.2/lib/node203.html
p1515
aVhttps://docs.python.org/2/using/unix.html
p1516
aVhttps://docs.python.org/2.2/lib/module-email.Header.html
p1517
aVhttps://docs.python.org/2.2/lib/node528.html
p1518
aVhttps://docs.python.org/2.2/lib/module-ScrolledText.html
p1519
aVhttps://docs.python.org/2/genindex-X.html
p1520
aVhttps://docs.python.org/2.2/lib/http-handler-objects.html
p1521
aVhttps://docs.python.org/2/library/crypt.html
p1522
aVhttps://docs.python.org/2.2/lib/testresult-objects.html
p1523
aVhttps://docs.python.org/2.2/lib/zipinfo-objects.html
p1524
aVhttps://docs.python.org/2.2/dist/setup-script.html
p1525
aVhttps://docs.python.org/2.2/ref/print.html
p1526
aVhttps://docs.python.org/2.2/mac/module-Carbon.Dlg.html
p1527
aVhttps://docs.python.org/2.2/ref/exprlists.html
p1528
aVhttps://docs.python.org/2.2/ref/assert.html
p1529
aVhttps://docs.python.org/2/library/tty.html
p1530
aVhttps://docs.python.org/2.2/mac/module-macerrors.html
p1531
aVhttps://docs.python.org/2.2/api/allocating-objects.html
p1532
aVhttps://docs.python.org/2/tutorial/interpreter.html
p1533
aVhttps://docs.python.org/2/library/colorpicker.html
p1534
aVhttps://docs.python.org/2.2/ref/contents.html
p1535
aVhttps://docs.python.org/2/library/dummy_threading.html
p1536
aVhttps://docs.python.org/2.2/lib/module-weakref.html
p1537
aVhttps://docs.python.org/2.2/inst/about.html
p1538
aVhttps://docs.python.org/2.2/lib/locator-objects.html
p1539
aVhttps://docs.python.org/2.2/lib/node521.html
p1540
aVhttps://docs.python.org/2/install/index.html
p1541
aVhttps://docs.python.org/2.2/mac/module-cfmfile.html
p1542
aVhttps://docs.python.org/2.2/lib/node129.html
p1543
aVhttps://docs.python.org/2/distutils/commandref.html
p1544
aVhttps://docs.python.org/2.2/lib/fpectl-example.html
p1545
aVhttps://docs.python.org/2/library/string.html
p1546
aVhttps://docs.python.org/2.2/doc/contents.html
p1547
aVhttps://docs.python.org/2.2/lib/mh-folder-objects.html
p1548
aVhttps://docs.python.org/2.2/ref/whitespace.html
p1549
aVhttps://docs.python.org/2.2/lib/MimeWriter-objects.html
p1550
aVhttps://docs.python.org/2.2/lib/module-anydbm.html
p1551
aVhttps://docs.python.org/2.2/lib/dom-element-objects.html
p1552
aVhttps://docs.python.org/2.2/lib/dom-objects.html
p1553
aVhttps://docs.python.org/2.2/lib/internet.html
p1554
aVhttps://docs.python.org/2.2/lib/module-urlparse.html
p1555
aVhttps://docs.python.org/2.2/lib/module-pipes.html
p1556
aVhttps://docs.python.org/2.2/ref/floating.html
p1557
aVhttps://docs.python.org/2.2/lib/expaterror-objects.html
p1558
aVhttps://docs.python.org/2.2/lib/http-redirect-handler.html
p1559
aVhttps://docs.python.org/2.2/whatsnew/node6.html
p1560
aVhttps://docs.python.org/2/library/configparser.html
p1561
aVhttps://docs.python.org/2/library/poplib.html
p1562
aVhttps://docs.python.org/2.2/lib/differ-examples.html
p1563
aVhttps://docs.python.org/2.2/lib/module-winsound.html
p1564
aVhttps://docs.python.org/2.2/ref/numeric-types.html
p1565
aVhttps://docs.python.org/2/library/idle.html
p1566
aVhttps://docs.python.org/2/c-api/capsule.html
p1567
aVhttps://docs.python.org/2.2/mac/module-Carbon.CF.html
p1568
aVhttps://docs.python.org/2.2/lib/node622.html
p1569
aVhttps://docs.python.org/2.2/dist/creating-wininst.html
p1570
aVhttps://docs.python.org/2.2/lib/module-ftplib.html
p1571
aVhttps://docs.python.org/2.2/ref/comments.html
p1572
aVhttps://docs.python.org/2.2/mac/module-mactty.html
p1573
aVhttps://docs.python.org/2/library/struct.html
p1574
aVhttps://docs.python.org/2.2/mac/macpython-modules.html
p1575
aVhttps://docs.python.org/2.2/lib/node384.html
p1576
aVhttps://docs.python.org/2/c-api/structures.html
p1577
aVhttps://docs.python.org/2/library/fileinput.html
p1578
aVhttps://docs.python.org/2.2/doc/node6.html
p1579
atRp1580
.